(i__main__
TreeNode
p0
(dp1
S'nodes'
p2
(lp3
(i__main__
TreeNode
p4
(dp5
g2
(lp6
(i__main__
TreeNode
p7
(dp8
g2
(lp9
(i__main__
TreeNode
p10
(dp11
g2
(lp12
sS'data'
p13
S'T'
p14
sba(i__main__
TreeNode
p15
(dp16
g2
(lp17
sg13
g14
sba(i__main__
TreeNode
p18
(dp19
g2
(lp20
sg13
g14
sba(i__main__
TreeNode
p21
(dp22
g2
(lp23
sg13
S'F'
p24
sba(i__main__
TreeNode
p25
(dp26
g2
(lp27
sg13
g14
sbasg13
S'231'
p28
sba(i__main__
TreeNode
p29
(dp30
g2
(lp31
(i__main__
TreeNode
p32
(dp33
g2
(lp34
sg13
g24
sba(i__main__
TreeNode
p35
(dp36
g2
(lp37
sg13
g14
sba(i__main__
TreeNode
p38
(dp39
g2
(lp40
sg13
g24
sba(i__main__
TreeNode
p41
(dp42
g2
(lp43
sg13
g14
sba(i__main__
TreeNode
p44
(dp45
g2
(lp46
sg13
g24
sbasg13
S'258'
p47
sba(i__main__
TreeNode
p48
(dp49
g2
(lp50
(i__main__
TreeNode
p51
(dp52
g2
(lp53
sg13
g14
sba(i__main__
TreeNode
p54
(dp55
g2
(lp56
sg13
g14
sba(i__main__
TreeNode
p57
(dp58
g2
(lp59
sg13
g24
sba(i__main__
TreeNode
p60
(dp61
g2
(lp62
sg13
g14
sba(i__main__
TreeNode
p63
(dp64
g2
(lp65
sg13
g24
sbasg13
S'146'
p66
sba(i__main__
TreeNode
p67
(dp68
g2
(lp69
(i__main__
TreeNode
p70
(dp71
g2
(lp72
sg13
g24
sba(i__main__
TreeNode
p73
(dp74
g2
(lp75
sg13
g14
sba(i__main__
TreeNode
p76
(dp77
g2
(lp78
sg13
g24
sba(i__main__
TreeNode
p79
(dp80
g2
(lp81
sg13
g24
sba(i__main__
TreeNode
p82
(dp83
g2
(lp84
sg13
g14
sbasg13
S'70'
p85
sba(i__main__
TreeNode
p86
(dp87
g2
(lp88
(i__main__
TreeNode
p89
(dp90
g2
(lp91
sg13
g24
sba(i__main__
TreeNode
p92
(dp93
g2
(lp94
sg13
g14
sba(i__main__
TreeNode
p95
(dp96
g2
(lp97
sg13
g24
sba(i__main__
TreeNode
p98
(dp99
g2
(lp100
sg13
g14
sba(i__main__
TreeNode
p101
(dp102
g2
(lp103
sg13
g14
sbasg13
S'19'
p104
sbasg13
S'260'
p105
sba(i__main__
TreeNode
p106
(dp107
g2
(lp108
(i__main__
TreeNode
p109
(dp110
g2
(lp111
(i__main__
TreeNode
p112
(dp113
g2
(lp114
sg13
g24
sba(i__main__
TreeNode
p115
(dp116
g2
(lp117
sg13
g14
sba(i__main__
TreeNode
p118
(dp119
g2
(lp120
sg13
g14
sba(i__main__
TreeNode
p121
(dp122
g2
(lp123
sg13
g24
sba(i__main__
TreeNode
p124
(dp125
g2
(lp126
sg13
g24
sbasg13
S'141'
p127
sba(i__main__
TreeNode
p128
(dp129
g2
(lp130
(i__main__
TreeNode
p131
(dp132
g2
(lp133
sg13
g24
sba(i__main__
TreeNode
p134
(dp135
g2
(lp136
sg13
g24
sba(i__main__
TreeNode
p137
(dp138
g2
(lp139
sg13
g24
sba(i__main__
TreeNode
p140
(dp141
g2
(lp142
sg13
g24
sba(i__main__
TreeNode
p143
(dp144
g2
(lp145
sg13
g24
sbasg13
S'244'
p146
sba(i__main__
TreeNode
p147
(dp148
g2
(lp149
(i__main__
TreeNode
p150
(dp151
g2
(lp152
sg13
g24
sba(i__main__
TreeNode
p153
(dp154
g2
(lp155
sg13
g14
sba(i__main__
TreeNode
p156
(dp157
g2
(lp158
sg13
g14
sba(i__main__
TreeNode
p159
(dp160
g2
(lp161
sg13
g24
sba(i__main__
TreeNode
p162
(dp163
g2
(lp164
sg13
g24
sbasg13
S'100'
p165
sba(i__main__
TreeNode
p166
(dp167
g2
(lp168
(i__main__
TreeNode
p169
(dp170
g2
(lp171
sg13
g14
sba(i__main__
TreeNode
p172
(dp173
g2
(lp174
sg13
g14
sba(i__main__
TreeNode
p175
(dp176
g2
(lp177
sg13
g14
sba(i__main__
TreeNode
p178
(dp179
g2
(lp180
sg13
g24
sba(i__main__
TreeNode
p181
(dp182
g2
(lp183
sg13
g24
sbasg13
S'93'
p184
sba(i__main__
TreeNode
p185
(dp186
g2
(lp187
(i__main__
TreeNode
p188
(dp189
g2
(lp190
sg13
g24
sba(i__main__
TreeNode
p191
(dp192
g2
(lp193
sg13
g24
sba(i__main__
TreeNode
p194
(dp195
g2
(lp196
sg13
g14
sba(i__main__
TreeNode
p197
(dp198
g2
(lp199
sg13
g24
sba(i__main__
TreeNode
p200
(dp201
g2
(lp202
sg13
g24
sbasg13
S'265'
p203
sbasg13
S'111'
p204
sba(i__main__
TreeNode
p205
(dp206
g2
(lp207
(i__main__
TreeNode
p208
(dp209
g2
(lp210
(i__main__
TreeNode
p211
(dp212
g2
(lp213
sg13
g24
sba(i__main__
TreeNode
p214
(dp215
g2
(lp216
sg13
g24
sba(i__main__
TreeNode
p217
(dp218
g2
(lp219
sg13
g14
sba(i__main__
TreeNode
p220
(dp221
g2
(lp222
sg13
g14
sba(i__main__
TreeNode
p223
(dp224
g2
(lp225
sg13
g24
sbasg13
S'12'
p226
sba(i__main__
TreeNode
p227
(dp228
g2
(lp229
(i__main__
TreeNode
p230
(dp231
g2
(lp232
sg13
g24
sba(i__main__
TreeNode
p233
(dp234
g2
(lp235
sg13
g24
sba(i__main__
TreeNode
p236
(dp237
g2
(lp238
sg13
g24
sba(i__main__
TreeNode
p239
(dp240
g2
(lp241
sg13
g24
sba(i__main__
TreeNode
p242
(dp243
g2
(lp244
sg13
g14
sbasg13
S'42'
p245
sba(i__main__
TreeNode
p246
(dp247
g2
(lp248
(i__main__
TreeNode
p249
(dp250
g2
(lp251
sg13
g14
sba(i__main__
TreeNode
p252
(dp253
g2
(lp254
sg13
g14
sba(i__main__
TreeNode
p255
(dp256
g2
(lp257
sg13
g24
sba(i__main__
TreeNode
p258
(dp259
g2
(lp260
sg13
g24
sba(i__main__
TreeNode
p261
(dp262
g2
(lp263
sg13
g14
sbasg13
S'72'
p264
sba(i__main__
TreeNode
p265
(dp266
g2
(lp267
(i__main__
TreeNode
p268
(dp269
g2
(lp270
sg13
g24
sba(i__main__
TreeNode
p271
(dp272
g2
(lp273
sg13
g14
sba(i__main__
TreeNode
p274
(dp275
g2
(lp276
sg13
g24
sba(i__main__
TreeNode
p277
(dp278
g2
(lp279
sg13
g14
sba(i__main__
TreeNode
p280
(dp281
g2
(lp282
sg13
g24
sbasg13
S'182'
p283
sba(i__main__
TreeNode
p284
(dp285
g2
(lp286
(i__main__
TreeNode
p287
(dp288
g2
(lp289
sg13
g14
sba(i__main__
TreeNode
p290
(dp291
g2
(lp292
sg13
g14
sba(i__main__
TreeNode
p293
(dp294
g2
(lp295
sg13
g14
sba(i__main__
TreeNode
p296
(dp297
g2
(lp298
sg13
g14
sba(i__main__
TreeNode
p299
(dp300
g2
(lp301
sg13
g14
sbasg13
S'92'
p302
sbasg13
S'66'
p303
sba(i__main__
TreeNode
p304
(dp305
g2
(lp306
(i__main__
TreeNode
p307
(dp308
g2
(lp309
(i__main__
TreeNode
p310
(dp311
g2
(lp312
sg13
g24
sba(i__main__
TreeNode
p313
(dp314
g2
(lp315
sg13
g24
sba(i__main__
TreeNode
p316
(dp317
g2
(lp318
sg13
g14
sba(i__main__
TreeNode
p319
(dp320
g2
(lp321
sg13
g24
sba(i__main__
TreeNode
p322
(dp323
g2
(lp324
sg13
g24
sbasg13
S'228'
p325
sba(i__main__
TreeNode
p326
(dp327
g2
(lp328
(i__main__
TreeNode
p329
(dp330
g2
(lp331
sg13
g14
sba(i__main__
TreeNode
p332
(dp333
g2
(lp334
sg13
g24
sba(i__main__
TreeNode
p335
(dp336
g2
(lp337
sg13
g24
sba(i__main__
TreeNode
p338
(dp339
g2
(lp340
sg13
g24
sba(i__main__
TreeNode
p341
(dp342
g2
(lp343
sg13
g24
sbasg13
S'219'
p344
sba(i__main__
TreeNode
p345
(dp346
g2
(lp347
(i__main__
TreeNode
p348
(dp349
g2
(lp350
sg13
g24
sba(i__main__
TreeNode
p351
(dp352
g2
(lp353
sg13
g24
sba(i__main__
TreeNode
p354
(dp355
g2
(lp356
sg13
g14
sba(i__main__
TreeNode
p357
(dp358
g2
(lp359
sg13
g14
sba(i__main__
TreeNode
p360
(dp361
g2
(lp362
sg13
g14
sbasg13
S'137'
p363
sba(i__main__
TreeNode
p364
(dp365
g2
(lp366
(i__main__
TreeNode
p367
(dp368
g2
(lp369
sg13
g14
sba(i__main__
TreeNode
p370
(dp371
g2
(lp372
sg13
g24
sba(i__main__
TreeNode
p373
(dp374
g2
(lp375
sg13
g14
sba(i__main__
TreeNode
p376
(dp377
g2
(lp378
sg13
g24
sba(i__main__
TreeNode
p379
(dp380
g2
(lp381
sg13
g14
sbasg13
S'247'
p382
sba(i__main__
TreeNode
p383
(dp384
g2
(lp385
(i__main__
TreeNode
p386
(dp387
g2
(lp388
sg13
g24
sba(i__main__
TreeNode
p389
(dp390
g2
(lp391
sg13
g14
sba(i__main__
TreeNode
p392
(dp393
g2
(lp394
sg13
g14
sba(i__main__
TreeNode
p395
(dp396
g2
(lp397
sg13
g24
sba(i__main__
TreeNode
p398
(dp399
g2
(lp400
sg13
g14
sbasg13
S'243'
p401
sbasg13
S'42'
p402
sba(i__main__
TreeNode
p403
(dp404
g2
(lp405
(i__main__
TreeNode
p406
(dp407
g2
(lp408
(i__main__
TreeNode
p409
(dp410
g2
(lp411
sg13
g14
sba(i__main__
TreeNode
p412
(dp413
g2
(lp414
sg13
g24
sba(i__main__
TreeNode
p415
(dp416
g2
(lp417
sg13
g24
sba(i__main__
TreeNode
p418
(dp419
g2
(lp420
sg13
g24
sba(i__main__
TreeNode
p421
(dp422
g2
(lp423
sg13
g14
sbasg13
S'233'
p424
sba(i__main__
TreeNode
p425
(dp426
g2
(lp427
(i__main__
TreeNode
p428
(dp429
g2
(lp430
sg13
g14
sba(i__main__
TreeNode
p431
(dp432
g2
(lp433
sg13
g24
sba(i__main__
TreeNode
p434
(dp435
g2
(lp436
sg13
g14
sba(i__main__
TreeNode
p437
(dp438
g2
(lp439
sg13
g14
sba(i__main__
TreeNode
p440
(dp441
g2
(lp442
sg13
g14
sbasg13
S'233'
p443
sba(i__main__
TreeNode
p444
(dp445
g2
(lp446
(i__main__
TreeNode
p447
(dp448
g2
(lp449
sg13
g14
sba(i__main__
TreeNode
p450
(dp451
g2
(lp452
sg13
g24
sba(i__main__
TreeNode
p453
(dp454
g2
(lp455
sg13
g24
sba(i__main__
TreeNode
p456
(dp457
g2
(lp458
sg13
g14
sba(i__main__
TreeNode
p459
(dp460
g2
(lp461
sg13
g14
sbasg13
S'177'
p462
sba(i__main__
TreeNode
p463
(dp464
g2
(lp465
(i__main__
TreeNode
p466
(dp467
g2
(lp468
sg13
g24
sba(i__main__
TreeNode
p469
(dp470
g2
(lp471
sg13
g24
sba(i__main__
TreeNode
p472
(dp473
g2
(lp474
sg13
g24
sba(i__main__
TreeNode
p475
(dp476
g2
(lp477
sg13
g24
sba(i__main__
TreeNode
p478
(dp479
g2
(lp480
sg13
g24
sbasg13
S'131'
p481
sba(i__main__
TreeNode
p482
(dp483
g2
(lp484
(i__main__
TreeNode
p485
(dp486
g2
(lp487
sg13
g24
sba(i__main__
TreeNode
p488
(dp489
g2
(lp490
sg13
g24
sba(i__main__
TreeNode
p491
(dp492
g2
(lp493
sg13
g14
sba(i__main__
TreeNode
p494
(dp495
g2
(lp496
sg13
g24
sba(i__main__
TreeNode
p497
(dp498
g2
(lp499
sg13
g14
sbasg13
S'67'
p500
sbasg13
S'132'
p501
sbasg13
S'204'
p502
sb.