(i__main__
TreeNode
p0
(dp1
S'nodes'
p2
(lp3
(i__main__
TreeNode
p4
(dp5
g2
(lp6
(i__main__
TreeNode
p7
(dp8
g2
(lp9
(i__main__
TreeNode
p10
(dp11
g2
(lp12
(i__main__
TreeNode
p13
(dp14
g2
(lp15
(i__main__
TreeNode
p16
(dp17
g2
(lp18
(i__main__
TreeNode
p19
(dp20
g2
(lp21
(i__main__
TreeNode
p22
(dp23
g2
(lp24
(i__main__
TreeNode
p25
(dp26
g2
(lp27
(i__main__
TreeNode
p28
(dp29
g2
(lp30
(i__main__
TreeNode
p31
(dp32
g2
(lp33
I-1
aI-1
aI-1
aI-1
aI-1
asS'data'
p34
S'T'
p35
sba(i__main__
TreeNode
p36
(dp37
g2
(lp38
I-1
aI-1
aI-1
aI-1
aI-1
asg34
S'F'
p39
sba(i__main__
TreeNode
p40
(dp41
g2
(lp42
I-1
aI-1
aI-1
aI-1
aI-1
asg34
g35
sba(i__main__
TreeNode
p43
(dp44
g2
(lp45
I-1
aI-1
aI-1
aI-1
aI-1
asg34
g39
sba(i__main__
TreeNode
p46
(dp47
g2
(lp48
I-1
aI-1
aI-1
aI-1
aI-1
asg34
g35
sbasg34
I127
sba(i__main__
TreeNode
p49
(dp50
g2
(lp51
(i__main__
TreeNode
p52
(dp53
g2
(lp54
I-1
aI-1
aI-1
aI-1
aI-1
asg34
g39
sbaI-1
a(i__main__
TreeNode
p55
(dp56
g2
(lp57
I-1
aI-1
aI-1
aI-1
aI-1
asg34
g39
sba(i__main__
TreeNode
p58
(dp59
g2
(lp60
I-1
aI-1
aI-1
aI-1
aI-1
asg34
g35
sbaI-1
asg34
I84
sbaI-1
a(i__main__
TreeNode
p61
(dp62
g2
(lp63
(i__main__
TreeNode
p64
(dp65
g2
(lp66
I-1
aI-1
aI-1
aI-1
aI-1
asg34
g35
sba(i__main__
TreeNode
p67
(dp68
g2
(lp69
I-1
aI-1
aI-1
aI-1
aI-1
asg34
g39
sba(i__main__
TreeNode
p70
(dp71
g2
(lp72
I-1
aI-1
aI-1
aI-1
aI-1
asg34
g39
sba(i__main__
TreeNode
p73
(dp74
g2
(lp75
I-1
aI-1
aI-1
aI-1
aI-1
asg34
g39
sba(i__main__
TreeNode
p76
(dp77
g2
(lp78
I-1
aI-1
aI-1
aI-1
aI-1
asg34
g35
sbasg34
I88
sba(i__main__
TreeNode
p79
(dp80
g2
(lp81
I-1
aI-1
aI-1
aI-1
aI-1
asg34
g35
sbasg34
I266
sbaI-1
a(i__main__
TreeNode
p82
(dp83
g2
(lp84
(i__main__
TreeNode
p85
(dp86
g2
(lp87
I-1
aI-1
aI-1
aI-1
aI-1
asg34
g35
sbaI-1
a(i__main__
TreeNode
p88
(dp89
g2
(lp90
I-1
aI-1
aI-1
aI-1
aI-1
asg34
g39
sbaI-1
aI-1
asg34
I86
sbaI-1
aI-1
asg34
I181
sba(i__main__
TreeNode
p91
(dp92
g2
(lp93
(i__main__
TreeNode
p94
(dp95
g2
(lp96
(i__main__
TreeNode
p97
(dp98
g2
(lp99
(i__main__
TreeNode
p100
(dp101
g2
(lp102
(i__main__
TreeNode
p103
(dp104
g2
(lp105
(i__main__
TreeNode
p106
(dp107
g2
(lp108
I-1
aI-1
aI-1
aI-1
aI-1
asg34
g39
sba(i__main__
TreeNode
p109
(dp110
g2
(lp111
I-1
aI-1
aI-1
aI-1
aI-1
asg34
g35
sba(i__main__
TreeNode
p112
(dp113
g2
(lp114
(i__main__
TreeNode
p115
(dp116
g2
(lp117
I-1
aI-1
aI-1
aI-1
aI-1
asg34
g35
sba(i__main__
TreeNode
p118
(dp119
g2
(lp120
I-1
aI-1
aI-1
aI-1
aI-1
asg34
g39
sbaI-1
aI-1
aI-1
asg34
I128
sbaI-1
a(i__main__
TreeNode
p121
(dp122
g2
(lp123
(i__main__
TreeNode
p124
(dp125
g2
(lp126
I-1
aI-1
aI-1
aI-1
aI-1
asg34
g39
sbaI-1
aI-1
a(i__main__
TreeNode
p127
(dp128
g2
(lp129
I-1
aI-1
aI-1
aI-1
aI-1
asg34
g39
sbaI-1
asg34
I170
sbasg34
I267
sba(i__main__
TreeNode
p130
(dp131
g2
(lp132
I-1
aI-1
aI-1
aI-1
aI-1
asg34
g35
sbaI-1
aI-1
a(i__main__
TreeNode
p133
(dp134
g2
(lp135
I-1
aI-1
aI-1
aI-1
aI-1
asg34
g39
sbasg34
I174
sba(i__main__
TreeNode
p136
(dp137
g2
(lp138
I-1
aI-1
aI-1
aI-1
aI-1
asg34
g35
sba(i__main__
TreeNode
p139
(dp140
g2
(lp141
I-1
aI-1
aI-1
aI-1
aI-1
asg34
g39
sba(i__main__
TreeNode
p142
(dp143
g2
(lp144
I-1
aI-1
aI-1
aI-1
aI-1
asg34
g35
sba(i__main__
TreeNode
p145
(dp146
g2
(lp147
I-1
aI-1
aI-1
aI-1
aI-1
asg34
g35
sbasg34
I272
sbaI-1
a(i__main__
TreeNode
p148
(dp149
g2
(lp150
I-1
aI-1
aI-1
aI-1
aI-1
asg34
g35
sba(i__main__
TreeNode
p151
(dp152
g2
(lp153
I-1
aI-1
aI-1
aI-1
aI-1
asg34
g35
sbaI-1
asg34
I175
sba(i__main__
TreeNode
p154
(dp155
g2
(lp156
I-1
a(i__main__
TreeNode
p157
(dp158
g2
(lp159
I-1
aI-1
aI-1
aI-1
aI-1
asg34
g39
sbaI-1
a(i__main__
TreeNode
p160
(dp161
g2
(lp162
I-1
aI-1
aI-1
aI-1
aI-1
asg34
g39
sba(i__main__
TreeNode
p163
(dp164
g2
(lp165
I-1
aI-1
aI-1
aI-1
aI-1
asg34
g35
sbasg34
I270
sba(i__main__
TreeNode
p166
(dp167
g2
(lp168
I-1
aI-1
aI-1
aI-1
aI-1
asg34
g39
sbaI-1
aI-1
asg34
I119
sba(i__main__
TreeNode
p169
(dp170
g2
(lp171
(i__main__
TreeNode
p172
(dp173
g2
(lp174
I-1
aI-1
aI-1
aI-1
aI-1
asg34
g39
sbaI-1
a(i__main__
TreeNode
p175
(dp176
g2
(lp177
(i__main__
TreeNode
p178
(dp179
g2
(lp180
(i__main__
TreeNode
p181
(dp182
g2
(lp183
(i__main__
TreeNode
p184
(dp185
g2
(lp186
(i__main__
TreeNode
p187
(dp188
g2
(lp189
(i__main__
TreeNode
p190
(dp191
g2
(lp192
I-1
aI-1
aI-1
aI-1
aI-1
asg34
g39
sbaI-1
a(i__main__
TreeNode
p193
(dp194
g2
(lp195
I-1
aI-1
aI-1
aI-1
aI-1
asg34
g35
sbaI-1
aI-1
asg34
I120
sba(i__main__
TreeNode
p196
(dp197
g2
(lp198
I-1
aI-1
aI-1
aI-1
aI-1
asg34
g35
sbaI-1
a(i__main__
TreeNode
p199
(dp200
g2
(lp201
I-1
aI-1
aI-1
aI-1
aI-1
asg34
g39
sbaI-1
asg34
I180
sbaI-1
aI-1
a(i__main__
TreeNode
p202
(dp203
g2
(lp204
I-1
aI-1
aI-1
aI-1
aI-1
asg34
g39
sbaI-1
asg34
I163
sba(i__main__
TreeNode
p205
(dp206
g2
(lp207
I-1
aI-1
aI-1
aI-1
aI-1
asg34
g39
sbaI-1
aI-1
aI-1
asg34
I186
sbaI-1
a(i__main__
TreeNode
p208
(dp209
g2
(lp210
I-1
aI-1
aI-1
aI-1
aI-1
asg34
g39
sbaI-1
a(i__main__
TreeNode
p211
(dp212
g2
(lp213
I-1
aI-1
aI-1
aI-1
aI-1
asg34
g39
sbasg34
I168
sbaI-1
aI-1
asg34
I184
sba(i__main__
TreeNode
p214
(dp215
g2
(lp216
(i__main__
TreeNode
p217
(dp218
g2
(lp219
(i__main__
TreeNode
p220
(dp221
g2
(lp222
I-1
aI-1
aI-1
aI-1
aI-1
asg34
g39
sba(i__main__
TreeNode
p223
(dp224
g2
(lp225
I-1
aI-1
aI-1
aI-1
aI-1
asg34
g39
sbaI-1
aI-1
aI-1
asg34
I166
sbaI-1
aI-1
aI-1
a(i__main__
TreeNode
p226
(dp227
g2
(lp228
I-1
aI-1
aI-1
aI-1
aI-1
asg34
g39
sbasg34
I122
sba(i__main__
TreeNode
p229
(dp230
g2
(lp231
(i__main__
TreeNode
p232
(dp233
g2
(lp234
(i__main__
TreeNode
p235
(dp236
g2
(lp237
(i__main__
TreeNode
p238
(dp239
g2
(lp240
(i__main__
TreeNode
p241
(dp242
g2
(lp243
(i__main__
TreeNode
p244
(dp245
g2
(lp246
I-1
aI-1
aI-1
aI-1
aI-1
asg34
g39
sbaI-1
a(i__main__
TreeNode
p247
(dp248
g2
(lp249
I-1
aI-1
aI-1
aI-1
aI-1
asg34
g39
sbaI-1
aI-1
asg34
I121
sba(i__main__
TreeNode
p250
(dp251
g2
(lp252
I-1
aI-1
aI-1
aI-1
aI-1
asg34
g39
sbaI-1
aI-1
aI-1
asg34
I93
sba(i__main__
TreeNode
p253
(dp254
g2
(lp255
I-1
aI-1
aI-1
aI-1
aI-1
asg34
g39
sbaI-1
aI-1
aI-1
asg34
I187
sba(i__main__
TreeNode
p256
(dp257
g2
(lp258
I-1
aI-1
aI-1
aI-1
aI-1
asg34
g39
sbaI-1
aI-1
aI-1
asg34
I171
sbaI-1
a(i__main__
TreeNode
p259
(dp260
g2
(lp261
I-1
aI-1
aI-1
aI-1
aI-1
asg34
g39
sbaI-1
aI-1
asg34
I124
sbasg34
I82
sbaI-1
a(i__main__
TreeNode
p262
(dp263
g2
(lp264
(i__main__
TreeNode
p265
(dp266
g2
(lp267
I-1
aI-1
aI-1
aI-1
aI-1
asg34
g35
sbaI-1
a(i__main__
TreeNode
p268
(dp269
g2
(lp270
I-1
aI-1
aI-1
aI-1
aI-1
asg34
g35
sbaI-1
aI-1
asg34
I264
sba(i__main__
TreeNode
p271
(dp272
g2
(lp273
I-1
aI-1
aI-1
aI-1
aI-1
asg34
g35
sba(i__main__
TreeNode
p274
(dp275
g2
(lp276
(i__main__
TreeNode
p277
(dp278
g2
(lp279
I-1
aI-1
aI-1
aI-1
aI-1
asg34
g39
sba(i__main__
TreeNode
p280
(dp281
g2
(lp282
I-1
aI-1
aI-1
aI-1
aI-1
asg34
g39
sbaI-1
aI-1
aI-1
asg34
I182
sbasg34
I165
sbaI-1
a(i__main__
TreeNode
p283
(dp284
g2
(lp285
I-1
aI-1
aI-1
aI-1
aI-1
asg34
g39
sba(i__main__
TreeNode
p286
(dp287
g2
(lp288
I-1
aI-1
aI-1
aI-1
aI-1
asg34
g35
sba(i__main__
TreeNode
p289
(dp290
g2
(lp291
I-1
aI-1
aI-1
aI-1
aI-1
asg34
g39
sbasg34
I134
sba(i__main__
TreeNode
p292
(dp293
g2
(lp294
(i__main__
TreeNode
p295
(dp296
g2
(lp297
(i__main__
TreeNode
p298
(dp299
g2
(lp300
I-1
aI-1
aI-1
aI-1
aI-1
asg34
g39
sba(i__main__
TreeNode
p301
(dp302
g2
(lp303
I-1
aI-1
aI-1
aI-1
aI-1
asg34
g39
sbaI-1
a(i__main__
TreeNode
p304
(dp305
g2
(lp306
I-1
aI-1
aI-1
aI-1
aI-1
asg34
g39
sba(i__main__
TreeNode
p307
(dp308
g2
(lp309
I-1
aI-1
aI-1
aI-1
aI-1
asg34
g39
sbasg34
I139
sbaI-1
a(i__main__
TreeNode
p310
(dp311
g2
(lp312
I-1
aI-1
aI-1
aI-1
aI-1
asg34
g39
sba(i__main__
TreeNode
p313
(dp314
g2
(lp315
I-1
aI-1
aI-1
aI-1
aI-1
asg34
g35
sbaI-1
asg34
I258
sba(i__main__
TreeNode
p316
(dp317
g2
(lp318
(i__main__
TreeNode
p319
(dp320
g2
(lp321
(i__main__
TreeNode
p322
(dp323
g2
(lp324
(i__main__
TreeNode
p325
(dp326
g2
(lp327
(i__main__
TreeNode
p328
(dp329
g2
(lp330
(i__main__
TreeNode
p331
(dp332
g2
(lp333
I-1
aI-1
aI-1
aI-1
aI-1
asg34
g39
sbaI-1
a(i__main__
TreeNode
p334
(dp335
g2
(lp336
I-1
aI-1
aI-1
aI-1
aI-1
asg34
g39
sbaI-1
aI-1
asg34
I95
sba(i__main__
TreeNode
p337
(dp338
g2
(lp339
I-1
aI-1
aI-1
aI-1
aI-1
asg34
g39
sbaI-1
a(i__main__
TreeNode
p340
(dp341
g2
(lp342
I-1
aI-1
aI-1
aI-1
aI-1
asg34
g39
sbaI-1
asg34
I177
sbaI-1
a(i__main__
TreeNode
p343
(dp344
g2
(lp345
I-1
aI-1
aI-1
aI-1
aI-1
asg34
g39
sbaI-1
aI-1
asg34
I173
sba(i__main__
TreeNode
p346
(dp347
g2
(lp348
I-1
aI-1
aI-1
aI-1
aI-1
asg34
g35
sbaI-1
a(i__main__
TreeNode
p349
(dp350
g2
(lp351
I-1
aI-1
aI-1
aI-1
aI-1
asg34
g39
sbaI-1
asg34
I185
sbaI-1
a(i__main__
TreeNode
p352
(dp353
g2
(lp354
I-1
aI-1
aI-1
aI-1
aI-1
asg34
g39
sba(i__main__
TreeNode
p355
(dp356
g2
(lp357
I-1
aI-1
aI-1
aI-1
aI-1
asg34
g35
sba(i__main__
TreeNode
p358
(dp359
g2
(lp360
I-1
aI-1
aI-1
aI-1
aI-1
asg34
g35
sbasg34
I154
sba(i__main__
TreeNode
p361
(dp362
g2
(lp363
(i__main__
TreeNode
p364
(dp365
g2
(lp366
I-1
aI-1
aI-1
aI-1
aI-1
asg34
g39
sba(i__main__
TreeNode
p367
(dp368
g2
(lp369
I-1
aI-1
aI-1
aI-1
aI-1
asg34
g35
sbaI-1
a(i__main__
TreeNode
p370
(dp371
g2
(lp372
I-1
aI-1
aI-1
aI-1
aI-1
asg34
g35
sba(i__main__
TreeNode
p373
(dp374
g2
(lp375
I-1
aI-1
aI-1
aI-1
aI-1
asg34
g35
sbasg34
I133
sba(i__main__
TreeNode
p376
(dp377
g2
(lp378
(i__main__
TreeNode
p379
(dp380
g2
(lp381
(i__main__
TreeNode
p382
(dp383
g2
(lp384
I-1
aI-1
aI-1
aI-1
aI-1
asg34
g39
sbaI-1
a(i__main__
TreeNode
p385
(dp386
g2
(lp387
(i__main__
TreeNode
p388
(dp389
g2
(lp390
I-1
aI-1
aI-1
aI-1
aI-1
asg34
g39
sbaI-1
aI-1
a(i__main__
TreeNode
p391
(dp392
g2
(lp393
I-1
aI-1
aI-1
aI-1
aI-1
asg34
g35
sbaI-1
asg34
I101
sba(i__main__
TreeNode
p394
(dp395
g2
(lp396
I-1
aI-1
aI-1
aI-1
aI-1
asg34
g35
sbaI-1
asg34
I123
sba(i__main__
TreeNode
p397
(dp398
g2
(lp399
I-1
aI-1
aI-1
aI-1
aI-1
asg34
g35
sba(i__main__
TreeNode
p400
(dp401
g2
(lp402
I-1
aI-1
aI-1
aI-1
aI-1
asg34
g35
sba(i__main__
TreeNode
p403
(dp404
g2
(lp405
I-1
aI-1
aI-1
aI-1
aI-1
asg34
g39
sba(i__main__
TreeNode
p406
(dp407
g2
(lp408
I-1
aI-1
aI-1
aI-1
aI-1
asg34
g39
sbasg34
I157
sbasg34
I262
sba(i__main__
TreeNode
p409
(dp410
g2
(lp411
I-1
aI-1
aI-1
aI-1
aI-1
asg34
g35
sba(i__main__
TreeNode
p412
(dp413
g2
(lp414
I-1
aI-1
aI-1
aI-1
aI-1
asg34
g35
sbaI-1
a(i__main__
TreeNode
p415
(dp416
g2
(lp417
I-1
aI-1
aI-1
aI-1
aI-1
asg34
g35
sbasg34
I15
sba(i__main__
TreeNode
p418
(dp419
g2
(lp420
(i__main__
TreeNode
p421
(dp422
g2
(lp423
I-1
aI-1
aI-1
aI-1
aI-1
asg34
g39
sba(i__main__
TreeNode
p424
(dp425
g2
(lp426
(i__main__
TreeNode
p427
(dp428
g2
(lp429
(i__main__
TreeNode
p430
(dp431
g2
(lp432
I-1
aI-1
aI-1
aI-1
aI-1
asg34
g39
sba(i__main__
TreeNode
p433
(dp434
g2
(lp435
I-1
aI-1
aI-1
aI-1
aI-1
asg34
g39
sba(i__main__
TreeNode
p436
(dp437
g2
(lp438
I-1
aI-1
aI-1
aI-1
aI-1
asg34
g35
sba(i__main__
TreeNode
p439
(dp440
g2
(lp441
(i__main__
TreeNode
p442
(dp443
g2
(lp444
I-1
aI-1
a(i__main__
TreeNode
p445
(dp446
g2
(lp447
I-1
aI-1
aI-1
aI-1
aI-1
asg34
g39
sba(i__main__
TreeNode
p448
(dp449
g2
(lp450
(i__main__
TreeNode
p451
(dp452
g2
(lp453
I-1
aI-1
aI-1
aI-1
aI-1
asg34
g39
sbaI-1
a(i__main__
TreeNode
p454
(dp455
g2
(lp456
I-1
aI-1
aI-1
aI-1
aI-1
asg34
g39
sbaI-1
aI-1
asg34
I102
sba(i__main__
TreeNode
p457
(dp458
g2
(lp459
I-1
aI-1
aI-1
aI-1
aI-1
asg34
g39
sbasg34
I140
sbaI-1
a(i__main__
TreeNode
p460
(dp461
g2
(lp462
I-1
aI-1
aI-1
aI-1
aI-1
asg34
g39
sba(i__main__
TreeNode
p463
(dp464
g2
(lp465
I-1
aI-1
aI-1
aI-1
aI-1
asg34
g35
sba(i__main__
TreeNode
p466
(dp467
g2
(lp468
I-1
aI-1
aI-1
aI-1
aI-1
asg34
g39
sbasg34
I136
sba(i__main__
TreeNode
p469
(dp470
g2
(lp471
(i__main__
TreeNode
p472
(dp473
g2
(lp474
(i__main__
TreeNode
p475
(dp476
g2
(lp477
(i__main__
TreeNode
p478
(dp479
g2
(lp480
I-1
aI-1
aI-1
aI-1
aI-1
asg34
g39
sbaI-1
a(i__main__
TreeNode
p481
(dp482
g2
(lp483
(i__main__
TreeNode
p484
(dp485
g2
(lp486
I-1
aI-1
aI-1
aI-1
aI-1
asg34
g39
sba(i__main__
TreeNode
p487
(dp488
g2
(lp489
I-1
aI-1
aI-1
aI-1
aI-1
asg34
g39
sbaI-1
aI-1
aI-1
asg34
I105
sba(i__main__
TreeNode
p490
(dp491
g2
(lp492
I-1
aI-1
aI-1
aI-1
aI-1
asg34
g39
sba(i__main__
TreeNode
p493
(dp494
g2
(lp495
(i__main__
TreeNode
p496
(dp497
g2
(lp498
I-1
aI-1
aI-1
aI-1
aI-1
asg34
g35
sba(i__main__
TreeNode
p499
(dp500
g2
(lp501
I-1
aI-1
aI-1
aI-1
aI-1
asg34
g39
sba(i__main__
TreeNode
p502
(dp503
g2
(lp504
I-1
aI-1
aI-1
aI-1
aI-1
asg34
g39
sbaI-1
aI-1
asg34
I255
sbasg34
I130
sbaI-1
aI-1
a(i__main__
TreeNode
p505
(dp506
g2
(lp507
I-1
aI-1
aI-1
aI-1
aI-1
asg34
g39
sbaI-1
asg34
I232
sbaI-1
a(i__main__
TreeNode
p508
(dp509
g2
(lp510
I-1
aI-1
aI-1
aI-1
aI-1
asg34
g39
sba(i__main__
TreeNode
p511
(dp512
g2
(lp513
I-1
aI-1
aI-1
aI-1
aI-1
asg34
g39
sba(i__main__
TreeNode
p514
(dp515
g2
(lp516
I-1
aI-1
aI-1
aI-1
aI-1
asg34
g39
sbasg34
I142
sbasg34
I149
sbaI-1
aI-1
a(i__main__
TreeNode
p517
(dp518
g2
(lp519
I-1
aI-1
aI-1
aI-1
aI-1
asg34
g39
sba(i__main__
TreeNode
p520
(dp521
g2
(lp522
(i__main__
TreeNode
p523
(dp524
g2
(lp525
I-1
a(i__main__
TreeNode
p526
(dp527
g2
(lp528
I-1
aI-1
aI-1
aI-1
aI-1
asg34
g35
sba(i__main__
TreeNode
p529
(dp530
g2
(lp531
I-1
aI-1
aI-1
aI-1
aI-1
asg34
g39
sba(i__main__
TreeNode
p532
(dp533
g2
(lp534
(i__main__
TreeNode
p535
(dp536
g2
(lp537
I-1
aI-1
aI-1
aI-1
aI-1
asg34
g35
sbaI-1
a(i__main__
TreeNode
p538
(dp539
g2
(lp540
(i__main__
TreeNode
p541
(dp542
g2
(lp543
I-1
aI-1
aI-1
aI-1
aI-1
asg34
g39
sba(i__main__
TreeNode
p544
(dp545
g2
(lp546
(i__main__
TreeNode
p547
(dp548
g2
(lp549
I-1
aI-1
aI-1
aI-1
aI-1
asg34
g39
sbaI-1
aI-1
aI-1
a(i__main__
TreeNode
p550
(dp551
g2
(lp552
(i__main__
TreeNode
p553
(dp554
g2
(lp555
I-1
aI-1
aI-1
aI-1
aI-1
asg34
g35
sbaI-1
aI-1
aI-1
a(i__main__
TreeNode
p556
(dp557
g2
(lp558
I-1
aI-1
aI-1
aI-1
aI-1
asg34
g39
sbasg34
I212
sbasg34
I256
sba(i__main__
TreeNode
p559
(dp560
g2
(lp561
I-1
aI-1
aI-1
aI-1
aI-1
asg34
g35
sbaI-1
aI-1
asg34
I252
sba(i__main__
TreeNode
p562
(dp563
g2
(lp564
I-1
aI-1
aI-1
aI-1
aI-1
asg34
g39
sbaI-1
asg34
I90
sba(i__main__
TreeNode
p565
(dp566
g2
(lp567
I-1
aI-1
aI-1
aI-1
aI-1
asg34
g35
sbasg34
I141
sba(i__main__
TreeNode
p568
(dp569
g2
(lp570
I-1
aI-1
aI-1
aI-1
aI-1
asg34
g35
sba(i__main__
TreeNode
p571
(dp572
g2
(lp573
(i__main__
TreeNode
p574
(dp575
g2
(lp576
I-1
aI-1
aI-1
aI-1
aI-1
asg34
g39
sbaI-1
a(i__main__
TreeNode
p577
(dp578
g2
(lp579
I-1
aI-1
aI-1
aI-1
aI-1
asg34
g39
sbaI-1
a(i__main__
TreeNode
p580
(dp581
g2
(lp582
I-1
aI-1
aI-1
aI-1
aI-1
asg34
g39
sbasg34
I221
sba(i__main__
TreeNode
p583
(dp584
g2
(lp585
I-1
a(i__main__
TreeNode
p586
(dp587
g2
(lp588
I-1
aI-1
aI-1
aI-1
aI-1
asg34
g39
sba(i__main__
TreeNode
p589
(dp590
g2
(lp591
I-1
aI-1
aI-1
aI-1
aI-1
asg34
g39
sbaI-1
aI-1
asg34
I248
sba(i__main__
TreeNode
p592
(dp593
g2
(lp594
I-1
aI-1
aI-1
aI-1
aI-1
asg34
g39
sbasg34
I143
sbasg34
I216
sba(i__main__
TreeNode
p595
(dp596
g2
(lp597
(i__main__
TreeNode
p598
(dp599
g2
(lp600
I-1
aI-1
aI-1
aI-1
aI-1
asg34
g35
sbaI-1
a(i__main__
TreeNode
p601
(dp602
g2
(lp603
I-1
aI-1
aI-1
aI-1
aI-1
asg34
g39
sbaI-1
aI-1
asg34
I230
sba(i__main__
TreeNode
p604
(dp605
g2
(lp606
(i__main__
TreeNode
p607
(dp608
g2
(lp609
I-1
aI-1
aI-1
aI-1
aI-1
asg34
g35
sbaI-1
aI-1
aI-1
a(i__main__
TreeNode
p610
(dp611
g2
(lp612
I-1
aI-1
aI-1
aI-1
aI-1
asg34
g35
sbasg34
I150
sba(i__main__
TreeNode
p613
(dp614
g2
(lp615
(i__main__
TreeNode
p616
(dp617
g2
(lp618
I-1
aI-1
aI-1
aI-1
aI-1
asg34
g35
sba(i__main__
TreeNode
p619
(dp620
g2
(lp621
I-1
aI-1
aI-1
aI-1
aI-1
asg34
g39
sbaI-1
aI-1
a(i__main__
TreeNode
p622
(dp623
g2
(lp624
I-1
aI-1
aI-1
aI-1
aI-1
asg34
g35
sbasg34
I222
sbasg34
I246
sba(i__main__
TreeNode
p625
(dp626
g2
(lp627
(i__main__
TreeNode
p628
(dp629
g2
(lp630
(i__main__
TreeNode
p631
(dp632
g2
(lp633
(i__main__
TreeNode
p634
(dp635
g2
(lp636
I-1
aI-1
aI-1
aI-1
aI-1
asg34
g39
sbaI-1
aI-1
a(i__main__
TreeNode
p637
(dp638
g2
(lp639
I-1
aI-1
aI-1
aI-1
aI-1
asg34
g39
sbaI-1
asg34
I137
sbaI-1
aI-1
aI-1
a(i__main__
TreeNode
p640
(dp641
g2
(lp642
I-1
aI-1
aI-1
aI-1
aI-1
asg34
g35
sbasg34
I169
sba(i__main__
TreeNode
p643
(dp644
g2
(lp645
I-1
aI-1
aI-1
aI-1
aI-1
asg34
g35
sbaI-1
aI-1
aI-1
asg34
I37
sba(i__main__
TreeNode
p646
(dp647
g2
(lp648
(i__main__
TreeNode
p649
(dp650
g2
(lp651
(i__main__
TreeNode
p652
(dp653
g2
(lp654
I-1
aI-1
aI-1
aI-1
aI-1
asg34
g39
sbaI-1
aI-1
aI-1
a(i__main__
TreeNode
p655
(dp656
g2
(lp657
I-1
aI-1
aI-1
aI-1
aI-1
asg34
g35
sbasg34
I80
sba(i__main__
TreeNode
p658
(dp659
g2
(lp660
I-1
aI-1
aI-1
aI-1
aI-1
asg34
g39
sba(i__main__
TreeNode
p661
(dp662
g2
(lp663
I-1
aI-1
aI-1
aI-1
aI-1
asg34
g35
sba(i__main__
TreeNode
p664
(dp665
g2
(lp666
I-1
aI-1
aI-1
aI-1
aI-1
asg34
g35
sba(i__main__
TreeNode
p667
(dp668
g2
(lp669
I-1
aI-1
aI-1
aI-1
aI-1
asg34
g35
sbasg34
I151
sba(i__main__
TreeNode
p670
(dp671
g2
(lp672
(i__main__
TreeNode
p673
(dp674
g2
(lp675
(i__main__
TreeNode
p676
(dp677
g2
(lp678
(i__main__
TreeNode
p679
(dp680
g2
(lp681
(i__main__
TreeNode
p682
(dp683
g2
(lp684
I-1
aI-1
aI-1
aI-1
aI-1
asg34
g39
sbaI-1
aI-1
aI-1
a(i__main__
TreeNode
p685
(dp686
g2
(lp687
I-1
aI-1
aI-1
aI-1
aI-1
asg34
g39
sbasg34
I100
sba(i__main__
TreeNode
p688
(dp689
g2
(lp690
I-1
aI-1
aI-1
aI-1
aI-1
asg34
g35
sbaI-1
aI-1
aI-1
asg34
I167
sbaI-1
aI-1
a(i__main__
TreeNode
p691
(dp692
g2
(lp693
I-1
aI-1
aI-1
aI-1
aI-1
asg34
g39
sba(i__main__
TreeNode
p694
(dp695
g2
(lp696
I-1
aI-1
aI-1
aI-1
aI-1
asg34
g35
sbasg34
I131
sba(i__main__
TreeNode
p697
(dp698
g2
(lp699
I-1
aI-1
aI-1
aI-1
aI-1
asg34
g35
sba(i__main__
TreeNode
p700
(dp701
g2
(lp702
I-1
aI-1
aI-1
aI-1
aI-1
asg34
g35
sba(i__main__
TreeNode
p703
(dp704
g2
(lp705
I-1
aI-1
aI-1
aI-1
aI-1
asg34
g35
sba(i__main__
TreeNode
p706
(dp707
g2
(lp708
I-1
aI-1
aI-1
aI-1
aI-1
asg34
g35
sbasg34
I83
sbasg34
I271
sba(i__main__
TreeNode
p709
(dp710
g2
(lp711
(i__main__
TreeNode
p712
(dp713
g2
(lp714
(i__main__
TreeNode
p715
(dp716
g2
(lp717
(i__main__
TreeNode
p718
(dp719
g2
(lp720
(i__main__
TreeNode
p721
(dp722
g2
(lp723
(i__main__
TreeNode
p724
(dp725
g2
(lp726
(i__main__
TreeNode
p727
(dp728
g2
(lp729
I-1
aI-1
aI-1
aI-1
aI-1
asg34
g39
sba(i__main__
TreeNode
p730
(dp731
g2
(lp732
I-1
aI-1
aI-1
aI-1
aI-1
asg34
g35
sbaI-1
aI-1
aI-1
asg34
I126
sba(i__main__
TreeNode
p733
(dp734
g2
(lp735
(i__main__
TreeNode
p736
(dp737
g2
(lp738
I-1
aI-1
aI-1
aI-1
aI-1
asg34
g35
sba(i__main__
TreeNode
p739
(dp740
g2
(lp741
I-1
aI-1
aI-1
aI-1
aI-1
asg34
g35
sba(i__main__
TreeNode
p742
(dp743
g2
(lp744
I-1
aI-1
aI-1
aI-1
aI-1
asg34
g39
sba(i__main__
TreeNode
p745
(dp746
g2
(lp747
I-1
aI-1
aI-1
aI-1
aI-1
asg34
g39
sbaI-1
asg34
I50
sba(i__main__
TreeNode
p748
(dp749
g2
(lp750
I-1
aI-1
aI-1
aI-1
aI-1
asg34
g35
sbaI-1
aI-1
asg34
I47
sba(i__main__
TreeNode
p751
(dp752
g2
(lp753
(i__main__
TreeNode
p754
(dp755
g2
(lp756
(i__main__
TreeNode
p757
(dp758
g2
(lp759
(i__main__
TreeNode
p760
(dp761
g2
(lp762
I-1
a(i__main__
TreeNode
p763
(dp764
g2
(lp765
(i__main__
TreeNode
p766
(dp767
g2
(lp768
I-1
aI-1
aI-1
aI-1
aI-1
asg34
g39
sba(i__main__
TreeNode
p769
(dp770
g2
(lp771
I-1
aI-1
aI-1
aI-1
aI-1
asg34
g35
sba(i__main__
TreeNode
p772
(dp773
g2
(lp774
I-1
aI-1
aI-1
aI-1
aI-1
asg34
g39
sba(i__main__
TreeNode
p775
(dp776
g2
(lp777
I-1
aI-1
aI-1
aI-1
aI-1
asg34
g35
sbaI-1
asg34
I152
sba(i__main__
TreeNode
p778
(dp779
g2
(lp780
I-1
aI-1
aI-1
aI-1
aI-1
asg34
g35
sbaI-1
aI-1
asg34
I145
sba(i__main__
TreeNode
p781
(dp782
g2
(lp783
(i__main__
TreeNode
p784
(dp785
g2
(lp786
(i__main__
TreeNode
p787
(dp788
g2
(lp789
(i__main__
TreeNode
p790
(dp791
g2
(lp792
(i__main__
TreeNode
p793
(dp794
g2
(lp795
I-1
aI-1
aI-1
aI-1
aI-1
asg34
g35
sba(i__main__
TreeNode
p796
(dp797
g2
(lp798
I-1
aI-1
aI-1
aI-1
aI-1
asg34
g35
sba(i__main__
TreeNode
p799
(dp800
g2
(lp801
I-1
aI-1
aI-1
aI-1
aI-1
asg34
g35
sba(i__main__
TreeNode
p802
(dp803
g2
(lp804
I-1
aI-1
aI-1
aI-1
aI-1
asg34
g39
sbaI-1
asg34
I92
sba(i__main__
TreeNode
p805
(dp806
g2
(lp807
I-1
aI-1
aI-1
aI-1
aI-1
asg34
g35
sba(i__main__
TreeNode
p808
(dp809
g2
(lp810
I-1
aI-1
aI-1
aI-1
aI-1
asg34
g35
sba(i__main__
TreeNode
p811
(dp812
g2
(lp813
I-1
aI-1
aI-1
aI-1
aI-1
asg34
g35
sba(i__main__
TreeNode
p814
(dp815
g2
(lp816
I-1
aI-1
aI-1
aI-1
aI-1
asg34
g39
sbasg34
I237
sba(i__main__
TreeNode
p817
(dp818
g2
(lp819
I-1
aI-1
aI-1
aI-1
aI-1
asg34
g35
sba(i__main__
TreeNode
p820
(dp821
g2
(lp822
I-1
aI-1
aI-1
aI-1
aI-1
asg34
g39
sba(i__main__
TreeNode
p823
(dp824
g2
(lp825
I-1
aI-1
aI-1
aI-1
aI-1
asg34
g39
sba(i__main__
TreeNode
p826
(dp827
g2
(lp828
I-1
aI-1
aI-1
aI-1
aI-1
asg34
g39
sbasg34
I234
sba(i__main__
TreeNode
p829
(dp830
g2
(lp831
I-1
aI-1
aI-1
aI-1
aI-1
asg34
g35
sba(i__main__
TreeNode
p832
(dp833
g2
(lp834
(i__main__
TreeNode
p835
(dp836
g2
(lp837
(i__main__
TreeNode
p838
(dp839
g2
(lp840
I-1
aI-1
aI-1
aI-1
aI-1
asg34
g39
sba(i__main__
TreeNode
p841
(dp842
g2
(lp843
I-1
aI-1
aI-1
aI-1
aI-1
asg34
g39
sba(i__main__
TreeNode
p844
(dp845
g2
(lp846
I-1
aI-1
aI-1
aI-1
aI-1
asg34
g35
sba(i__main__
TreeNode
p847
(dp848
g2
(lp849
I-1
aI-1
aI-1
aI-1
aI-1
asg34
g35
sba(i__main__
TreeNode
p850
(dp851
g2
(lp852
I-1
aI-1
aI-1
aI-1
aI-1
asg34
g39
sbasg34
I223
sbaI-1
a(i__main__
TreeNode
p853
(dp854
g2
(lp855
I-1
aI-1
aI-1
aI-1
aI-1
asg34
g35
sba(i__main__
TreeNode
p856
(dp857
g2
(lp858
I-1
aI-1
aI-1
aI-1
aI-1
asg34
g39
sba(i__main__
TreeNode
p859
(dp860
g2
(lp861
I-1
aI-1
aI-1
aI-1
aI-1
asg34
g35
sbasg34
I238
sba(i__main__
TreeNode
p862
(dp863
g2
(lp864
I-1
aI-1
aI-1
aI-1
aI-1
asg34
g39
sba(i__main__
TreeNode
p865
(dp866
g2
(lp867
(i__main__
TreeNode
p868
(dp869
g2
(lp870
I-1
aI-1
aI-1
aI-1
aI-1
asg34
g35
sbaI-1
aI-1
a(i__main__
TreeNode
p871
(dp872
g2
(lp873
I-1
aI-1
aI-1
aI-1
aI-1
asg34
g39
sbaI-1
asg34
I178
sbasg34
I153
sba(i__main__
TreeNode
p874
(dp875
g2
(lp876
(i__main__
TreeNode
p877
(dp878
g2
(lp879
(i__main__
TreeNode
p880
(dp881
g2
(lp882
(i__main__
TreeNode
p883
(dp884
g2
(lp885
(i__main__
TreeNode
p886
(dp887
g2
(lp888
I-1
aI-1
aI-1
aI-1
aI-1
asg34
g35
sba(i__main__
TreeNode
p889
(dp890
g2
(lp891
(i__main__
TreeNode
p892
(dp893
g2
(lp894
(i__main__
TreeNode
p895
(dp896
g2
(lp897
(i__main__
TreeNode
p898
(dp899
g2
(lp900
I-1
a(i__main__
TreeNode
p901
(dp902
g2
(lp903
I-1
a(i__main__
TreeNode
p904
(dp905
g2
(lp906
(i__main__
TreeNode
p907
(dp908
g2
(lp909
I-1
aI-1
aI-1
aI-1
aI-1
asg34
g39
sba(i__main__
TreeNode
p910
(dp911
g2
(lp912
I-1
aI-1
aI-1
aI-1
aI-1
asg34
g39
sba(i__main__
TreeNode
p913
(dp914
g2
(lp915
I-1
aI-1
aI-1
aI-1
aI-1
asg34
g39
sba(i__main__
TreeNode
p916
(dp917
g2
(lp918
I-1
aI-1
aI-1
aI-1
aI-1
asg34
g39
sbaI-1
asg34
I201
sbaI-1
aI-1
a(i__main__
TreeNode
p919
(dp920
g2
(lp921
I-1
aI-1
aI-1
aI-1
aI-1
asg34
g35
sbasg34
I161
sbaI-1
aI-1
a(i__main__
TreeNode
p922
(dp923
g2
(lp924
I-1
a(i__main__
TreeNode
p925
(dp926
g2
(lp927
I-1
aI-1
aI-1
aI-1
aI-1
asg34
g35
sba(i__main__
TreeNode
p928
(dp929
g2
(lp930
I-1
aI-1
aI-1
aI-1
aI-1
asg34
g35
sba(i__main__
TreeNode
p931
(dp932
g2
(lp933
I-1
aI-1
aI-1
aI-1
aI-1
asg34
g39
sba(i__main__
TreeNode
p934
(dp935
g2
(lp936
(i__main__
TreeNode
p937
(dp938
g2
(lp939
I-1
aI-1
aI-1
aI-1
aI-1
asg34
g39
sba(i__main__
TreeNode
p940
(dp941
g2
(lp942
I-1
aI-1
aI-1
aI-1
aI-1
asg34
g35
sbaI-1
aI-1
aI-1
asg34
I227
sbasg34
I217
sbasg34
I146
sba(i__main__
TreeNode
p943
(dp944
g2
(lp945
I-1
aI-1
aI-1
aI-1
aI-1
asg34
g39
sba(i__main__
TreeNode
p946
(dp947
g2
(lp948
I-1
aI-1
aI-1
aI-1
aI-1
asg34
g35
sba(i__main__
TreeNode
p949
(dp950
g2
(lp951
I-1
aI-1
aI-1
aI-1
aI-1
asg34
g35
sba(i__main__
TreeNode
p952
(dp953
g2
(lp954
I-1
aI-1
aI-1
aI-1
aI-1
asg34
g35
sbasg34
I215
sba(i__main__
TreeNode
p955
(dp956
g2
(lp957
I-1
aI-1
aI-1
aI-1
aI-1
asg34
g39
sba(i__main__
TreeNode
p958
(dp959
g2
(lp960
I-1
aI-1
aI-1
aI-1
aI-1
asg34
g39
sba(i__main__
TreeNode
p961
(dp962
g2
(lp963
I-1
aI-1
aI-1
aI-1
aI-1
asg34
g35
sba(i__main__
TreeNode
p964
(dp965
g2
(lp966
I-1
aI-1
aI-1
aI-1
aI-1
asg34
g35
sbasg34
I228
sba(i__main__
TreeNode
p967
(dp968
g2
(lp969
I-1
aI-1
aI-1
aI-1
aI-1
asg34
g39
sbaI-1
aI-1
a(i__main__
TreeNode
p970
(dp971
g2
(lp972
I-1
aI-1
aI-1
aI-1
aI-1
asg34
g35
sbasg34
I243
sba(i__main__
TreeNode
p973
(dp974
g2
(lp975
I-1
aI-1
aI-1
aI-1
aI-1
asg34
g39
sba(i__main__
TreeNode
p976
(dp977
g2
(lp978
I-1
aI-1
aI-1
aI-1
aI-1
asg34
g35
sba(i__main__
TreeNode
p979
(dp980
g2
(lp981
I-1
aI-1
aI-1
aI-1
aI-1
asg34
g35
sbasg34
I158
sba(i__main__
TreeNode
p982
(dp983
g2
(lp984
I-1
aI-1
aI-1
aI-1
aI-1
asg34
g35
sba(i__main__
TreeNode
p985
(dp986
g2
(lp987
(i__main__
TreeNode
p988
(dp989
g2
(lp990
I-1
aI-1
aI-1
aI-1
aI-1
asg34
g39
sba(i__main__
TreeNode
p991
(dp992
g2
(lp993
I-1
aI-1
aI-1
aI-1
aI-1
asg34
g39
sba(i__main__
TreeNode
p994
(dp995
g2
(lp996
I-1
aI-1
aI-1
aI-1
aI-1
asg34
g35
sbaI-1
aI-1
asg34
I114
sba(i__main__
TreeNode
p997
(dp998
g2
(lp999
I-1
aI-1
aI-1
aI-1
aI-1
asg34
g39
sba(i__main__
TreeNode
p1000
(dp1001
g2
(lp1002
I-1
aI-1
aI-1
aI-1
aI-1
asg34
g39
sbasg34
I218
sba(i__main__
TreeNode
p1003
(dp1004
g2
(lp1005
I-1
aI-1
aI-1
aI-1
aI-1
asg34
g39
sba(i__main__
TreeNode
p1006
(dp1007
g2
(lp1008
I-1
aI-1
aI-1
aI-1
aI-1
asg34
g35
sbaI-1
aI-1
asg34
I231
sba(i__main__
TreeNode
p1009
(dp1010
g2
(lp1011
I-1
aI-1
aI-1
aI-1
aI-1
asg34
g39
sba(i__main__
TreeNode
p1012
(dp1013
g2
(lp1014
(i__main__
TreeNode
p1015
(dp1016
g2
(lp1017
I-1
aI-1
aI-1
aI-1
aI-1
asg34
g35
sba(i__main__
TreeNode
p1018
(dp1019
g2
(lp1020
I-1
aI-1
aI-1
aI-1
aI-1
asg34
g39
sbaI-1
a(i__main__
TreeNode
p1021
(dp1022
g2
(lp1023
I-1
aI-1
aI-1
aI-1
aI-1
asg34
g39
sbaI-1
asg34
I98
sba(i__main__
TreeNode
p1024
(dp1025
g2
(lp1026
(i__main__
TreeNode
p1027
(dp1028
g2
(lp1029
I-1
a(i__main__
TreeNode
p1030
(dp1031
g2
(lp1032
I-1
aI-1
aI-1
aI-1
aI-1
asg34
g39
sba(i__main__
TreeNode
p1033
(dp1034
g2
(lp1035
I-1
aI-1
aI-1
aI-1
aI-1
asg34
g39
sbaI-1
aI-1
asg34
I250
sba(i__main__
TreeNode
p1036
(dp1037
g2
(lp1038
(i__main__
TreeNode
p1039
(dp1040
g2
(lp1041
(i__main__
TreeNode
p1042
(dp1043
g2
(lp1044
(i__main__
TreeNode
p1045
(dp1046
g2
(lp1047
(i__main__
TreeNode
p1048
(dp1049
g2
(lp1050
I-1
aI-1
aI-1
aI-1
aI-1
asg34
g39
sba(i__main__
TreeNode
p1051
(dp1052
g2
(lp1053
I-1
aI-1
aI-1
aI-1
aI-1
asg34
g39
sbaI-1
aI-1
aI-1
asg34
I259
sba(i__main__
TreeNode
p1054
(dp1055
g2
(lp1056
I-1
aI-1
aI-1
aI-1
aI-1
asg34
g39
sbaI-1
aI-1
aI-1
asg34
I202
sbaI-1
aI-1
aI-1
a(i__main__
TreeNode
p1057
(dp1058
g2
(lp1059
I-1
aI-1
aI-1
aI-1
aI-1
asg34
g39
sbasg34
I99
sba(i__main__
TreeNode
p1060
(dp1061
g2
(lp1062
I-1
aI-1
aI-1
aI-1
aI-1
asg34
g39
sbaI-1
aI-1
aI-1
asg34
I226
sbaI-1
aI-1
aI-1
asg34
I162
sba(i__main__
TreeNode
p1063
(dp1064
g2
(lp1065
(i__main__
TreeNode
p1066
(dp1067
g2
(lp1068
I-1
aI-1
aI-1
aI-1
aI-1
asg34
g35
sba(i__main__
TreeNode
p1069
(dp1070
g2
(lp1071
(i__main__
TreeNode
p1072
(dp1073
g2
(lp1074
(i__main__
TreeNode
p1075
(dp1076
g2
(lp1077
I-1
aI-1
aI-1
aI-1
aI-1
asg34
g39
sbaI-1
aI-1
a(i__main__
TreeNode
p1078
(dp1079
g2
(lp1080
I-1
aI-1
aI-1
aI-1
aI-1
asg34
g39
sbaI-1
asg34
I144
sbaI-1
aI-1
a(i__main__
TreeNode
p1081
(dp1082
g2
(lp1083
I-1
aI-1
aI-1
aI-1
aI-1
asg34
g39
sbaI-1
asg34
I138
sba(i__main__
TreeNode
p1084
(dp1085
g2
(lp1086
I-1
aI-1
aI-1
aI-1
aI-1
asg34
g35
sba(i__main__
TreeNode
p1087
(dp1088
g2
(lp1089
I-1
aI-1
aI-1
aI-1
aI-1
asg34
g39
sba(i__main__
TreeNode
p1090
(dp1091
g2
(lp1092
I-1
aI-1
aI-1
aI-1
aI-1
asg34
g39
sbasg34
I239
sbasg34
I159
sba(i__main__
TreeNode
p1093
(dp1094
g2
(lp1095
(i__main__
TreeNode
p1096
(dp1097
g2
(lp1098
(i__main__
TreeNode
p1099
(dp1100
g2
(lp1101
(i__main__
TreeNode
p1102
(dp1103
g2
(lp1104
(i__main__
TreeNode
p1105
(dp1106
g2
(lp1107
(i__main__
TreeNode
p1108
(dp1109
g2
(lp1110
(i__main__
TreeNode
p1111
(dp1112
g2
(lp1113
I-1
aI-1
aI-1
aI-1
aI-1
asg34
g35
sba(i__main__
TreeNode
p1114
(dp1115
g2
(lp1116
(i__main__
TreeNode
p1117
(dp1118
g2
(lp1119
(i__main__
TreeNode
p1120
(dp1121
g2
(lp1122
I-1
aI-1
aI-1
aI-1
aI-1
asg34
g35
sba(i__main__
TreeNode
p1123
(dp1124
g2
(lp1125
I-1
aI-1
aI-1
aI-1
aI-1
asg34
g39
sbaI-1
a(i__main__
TreeNode
p1126
(dp1127
g2
(lp1128
I-1
aI-1
aI-1
aI-1
aI-1
asg34
g39
sba(i__main__
TreeNode
p1129
(dp1130
g2
(lp1131
I-1
aI-1
aI-1
aI-1
aI-1
asg34
g35
sbasg34
I236
sbaI-1
aI-1
a(i__main__
TreeNode
p1132
(dp1133
g2
(lp1134
I-1
aI-1
aI-1
aI-1
aI-1
asg34
g35
sba(i__main__
TreeNode
p1135
(dp1136
g2
(lp1137
I-1
aI-1
aI-1
aI-1
aI-1
asg34
g35
sbasg34
I261
sba(i__main__
TreeNode
p1138
(dp1139
g2
(lp1140
I-1
aI-1
aI-1
aI-1
aI-1
asg34
g39
sbaI-1
a(i__main__
TreeNode
p1141
(dp1142
g2
(lp1143
(i__main__
TreeNode
p1144
(dp1145
g2
(lp1146
I-1
aI-1
aI-1
aI-1
aI-1
asg34
g35
sba(i__main__
TreeNode
p1147
(dp1148
g2
(lp1149
I-1
aI-1
aI-1
aI-1
aI-1
asg34
g39
sbaI-1
aI-1
aI-1
asg34
I147
sbasg34
I214
sbaI-1
a(i__main__
TreeNode
p1150
(dp1151
g2
(lp1152
I-1
aI-1
aI-1
aI-1
aI-1
asg34
g35
sba(i__main__
TreeNode
p1153
(dp1154
g2
(lp1155
I-1
aI-1
aI-1
aI-1
aI-1
asg34
g39
sba(i__main__
TreeNode
p1156
(dp1157
g2
(lp1158
I-1
aI-1
aI-1
aI-1
aI-1
asg34
g35
sbasg34
I73
sba(i__main__
TreeNode
p1159
(dp1160
g2
(lp1161
I-1
aI-1
aI-1
aI-1
aI-1
asg34
g39
sba(i__main__
TreeNode
p1162
(dp1163
g2
(lp1164
I-1
aI-1
aI-1
aI-1
aI-1
asg34
g39
sba(i__main__
TreeNode
p1165
(dp1166
g2
(lp1167
I-1
aI-1
aI-1
aI-1
aI-1
asg34
g35
sbaI-1
asg34
I108
sba(i__main__
TreeNode
p1168
(dp1169
g2
(lp1170
I-1
aI-1
aI-1
aI-1
aI-1
asg34
g39
sbaI-1
aI-1
a(i__main__
TreeNode
p1171
(dp1172
g2
(lp1173
I-1
aI-1
aI-1
aI-1
aI-1
asg34
g35
sbasg34
I77
sba(i__main__
TreeNode
p1174
(dp1175
g2
(lp1176
I-1
aI-1
aI-1
aI-1
aI-1
asg34
g39
sba(i__main__
TreeNode
p1177
(dp1178
g2
(lp1179
I-1
aI-1
aI-1
aI-1
aI-1
asg34
g35
sba(i__main__
TreeNode
p1180
(dp1181
g2
(lp1182
I-1
aI-1
aI-1
aI-1
aI-1
asg34
g35
sba(i__main__
TreeNode
p1183
(dp1184
g2
(lp1185
I-1
aI-1
aI-1
aI-1
aI-1
asg34
g35
sbasg34
I225
sba(i__main__
TreeNode
p1186
(dp1187
g2
(lp1188
I-1
aI-1
aI-1
aI-1
aI-1
asg34
g39
sba(i__main__
TreeNode
p1189
(dp1190
g2
(lp1191
I-1
aI-1
aI-1
aI-1
aI-1
asg34
g35
sba(i__main__
TreeNode
p1192
(dp1193
g2
(lp1194
I-1
aI-1
aI-1
aI-1
aI-1
asg34
g35
sbaI-1
asg34
I200
sba(i__main__
TreeNode
p1195
(dp1196
g2
(lp1197
(i__main__
TreeNode
p1198
(dp1199
g2
(lp1200
(i__main__
TreeNode
p1201
(dp1202
g2
(lp1203
(i__main__
TreeNode
p1204
(dp1205
g2
(lp1206
(i__main__
TreeNode
p1207
(dp1208
g2
(lp1209
(i__main__
TreeNode
p1210
(dp1211
g2
(lp1212
(i__main__
TreeNode
p1213
(dp1214
g2
(lp1215
(i__main__
TreeNode
p1216
(dp1217
g2
(lp1218
(i__main__
TreeNode
p1219
(dp1220
g2
(lp1221
I-1
aI-1
aI-1
aI-1
aI-1
asg34
g39
sbaI-1
aI-1
aI-1
a(i__main__
TreeNode
p1222
(dp1223
g2
(lp1224
I-1
aI-1
aI-1
aI-1
aI-1
asg34
g39
sbasg34
I245
sba(i__main__
TreeNode
p1225
(dp1226
g2
(lp1227
I-1
aI-1
aI-1
aI-1
aI-1
asg34
g39
sbaI-1
aI-1
aI-1
asg34
I233
sba(i__main__
TreeNode
p1228
(dp1229
g2
(lp1230
I-1
aI-1
aI-1
aI-1
aI-1
asg34
g39
sbaI-1
aI-1
aI-1
asg34
I189
sba(i__main__
TreeNode
p1231
(dp1232
g2
(lp1233
I-1
aI-1
aI-1
aI-1
aI-1
asg34
g35
sbaI-1
aI-1
aI-1
asg34
I235
sba(i__main__
TreeNode
p1234
(dp1235
g2
(lp1236
I-1
aI-1
aI-1
aI-1
aI-1
asg34
g35
sba(i__main__
TreeNode
p1237
(dp1238
g2
(lp1239
I-1
aI-1
aI-1
aI-1
aI-1
asg34
g39
sbaI-1
aI-1
asg34
I118
sba(i__main__
TreeNode
p1240
(dp1241
g2
(lp1242
I-1
aI-1
aI-1
aI-1
aI-1
asg34
g39
sba(i__main__
TreeNode
p1243
(dp1244
g2
(lp1245
I-1
aI-1
aI-1
aI-1
aI-1
asg34
g39
sba(i__main__
TreeNode
p1246
(dp1247
g2
(lp1248
I-1
aI-1
aI-1
aI-1
aI-1
asg34
g39
sbaI-1
asg34
I257
sba(i__main__
TreeNode
p1249
(dp1250
g2
(lp1251
I-1
aI-1
aI-1
aI-1
aI-1
asg34
g39
sba(i__main__
TreeNode
p1252
(dp1253
g2
(lp1254
I-1
aI-1
aI-1
aI-1
aI-1
asg34
g35
sbaI-1
aI-1
asg34
I70
sba(i__main__
TreeNode
p1255
(dp1256
g2
(lp1257
I-1
aI-1
aI-1
aI-1
aI-1
asg34
g39
sba(i__main__
TreeNode
p1258
(dp1259
g2
(lp1260
I-1
aI-1
aI-1
aI-1
aI-1
asg34
g39
sba(i__main__
TreeNode
p1261
(dp1262
g2
(lp1263
I-1
aI-1
aI-1
aI-1
aI-1
asg34
g39
sbaI-1
asg34
I191
sbasg34
I160
sba(i__main__
TreeNode
p1264
(dp1265
g2
(lp1266
I-1
aI-1
aI-1
aI-1
aI-1
asg34
g35
sba(i__main__
TreeNode
p1267
(dp1268
g2
(lp1269
I-1
aI-1
aI-1
aI-1
aI-1
asg34
g39
sba(i__main__
TreeNode
p1270
(dp1271
g2
(lp1272
I-1
aI-1
aI-1
aI-1
aI-1
asg34
g39
sbaI-1
asg34
I193
sba(i__main__
TreeNode
p1273
(dp1274
g2
(lp1275
(i__main__
TreeNode
p1276
(dp1277
g2
(lp1278
(i__main__
TreeNode
p1279
(dp1280
g2
(lp1281
I-1
aI-1
aI-1
aI-1
aI-1
asg34
g35
sba(i__main__
TreeNode
p1282
(dp1283
g2
(lp1284
(i__main__
TreeNode
p1285
(dp1286
g2
(lp1287
(i__main__
TreeNode
p1288
(dp1289
g2
(lp1290
I-1
aI-1
aI-1
aI-1
aI-1
asg34
g39
sba(i__main__
TreeNode
p1291
(dp1292
g2
(lp1293
I-1
aI-1
aI-1
aI-1
aI-1
asg34
g35
sba(i__main__
TreeNode
p1294
(dp1295
g2
(lp1296
I-1
aI-1
aI-1
aI-1
aI-1
asg34
g39
sbaI-1
aI-1
asg34
I260
sba(i__main__
TreeNode
p1297
(dp1298
g2
(lp1299
I-1
aI-1
aI-1
aI-1
aI-1
asg34
g35
sbaI-1
aI-1
aI-1
asg34
I62
sbaI-1
a(i__main__
TreeNode
p1300
(dp1301
g2
(lp1302
I-1
aI-1
aI-1
aI-1
aI-1
asg34
g39
sbaI-1
asg34
I190
sba(i__main__
TreeNode
p1303
(dp1304
g2
(lp1305
I-1
aI-1
aI-1
aI-1
aI-1
asg34
g35
sbaI-1
aI-1
aI-1
asg34
I210
sba(i__main__
TreeNode
p1306
(dp1307
g2
(lp1308
I-1
aI-1
aI-1
aI-1
aI-1
asg34
g39
sba(i__main__
TreeNode
p1309
(dp1310
g2
(lp1311
I-1
aI-1
aI-1
aI-1
aI-1
asg34
g39
sba(i__main__
TreeNode
p1312
(dp1313
g2
(lp1314
I-1
aI-1
aI-1
aI-1
aI-1
asg34
g35
sbasg34
I209
sba(i__main__
TreeNode
p1315
(dp1316
g2
(lp1317
(i__main__
TreeNode
p1318
(dp1319
g2
(lp1320
(i__main__
TreeNode
p1321
(dp1322
g2
(lp1323
(i__main__
TreeNode
p1324
(dp1325
g2
(lp1326
(i__main__
TreeNode
p1327
(dp1328
g2
(lp1329
(i__main__
TreeNode
p1330
(dp1331
g2
(lp1332
(i__main__
TreeNode
p1333
(dp1334
g2
(lp1335
(i__main__
TreeNode
p1336
(dp1337
g2
(lp1338
(i__main__
TreeNode
p1339
(dp1340
g2
(lp1341
(i__main__
TreeNode
p1342
(dp1343
g2
(lp1344
(i__main__
TreeNode
p1345
(dp1346
g2
(lp1347
(i__main__
TreeNode
p1348
(dp1349
g2
(lp1350
I-1
aI-1
aI-1
aI-1
aI-1
asg34
g39
sba(i__main__
TreeNode
p1351
(dp1352
g2
(lp1353
I-1
aI-1
aI-1
aI-1
aI-1
asg34
g35
sbaI-1
aI-1
aI-1
asg34
I188
sba(i__main__
TreeNode
p1354
(dp1355
g2
(lp1356
I-1
aI-1
aI-1
aI-1
aI-1
asg34
g39
sbaI-1
aI-1
aI-1
asg34
I63
sbaI-1
a(i__main__
TreeNode
p1357
(dp1358
g2
(lp1359
I-1
aI-1
aI-1
aI-1
aI-1
asg34
g39
sbaI-1
aI-1
asg34
I196
sba(i__main__
TreeNode
p1360
(dp1361
g2
(lp1362
I-1
aI-1
aI-1
aI-1
aI-1
asg34
g35
sbaI-1
aI-1
aI-1
asg34
I203
sba(i__main__
TreeNode
p1363
(dp1364
g2
(lp1365
I-1
aI-1
aI-1
aI-1
aI-1
asg34
g39
sbaI-1
aI-1
aI-1
asg34
I206
sbaI-1
aI-1
aI-1
a(i__main__
TreeNode
p1366
(dp1367
g2
(lp1368
I-1
aI-1
aI-1
aI-1
aI-1
asg34
g35
sbasg34
I69
sba(i__main__
TreeNode
p1369
(dp1370
g2
(lp1371
I-1
aI-1
aI-1
aI-1
aI-1
asg34
g39
sba(i__main__
TreeNode
p1372
(dp1373
g2
(lp1374
I-1
aI-1
aI-1
aI-1
aI-1
asg34
g39
sbaI-1
aI-1
asg34
I76
sba(i__main__
TreeNode
p1375
(dp1376
g2
(lp1377
I-1
aI-1
aI-1
aI-1
aI-1
asg34
g35
sbaI-1
aI-1
aI-1
asg34
I65
sba(i__main__
TreeNode
p1378
(dp1379
g2
(lp1380
I-1
aI-1
aI-1
aI-1
aI-1
asg34
g35
sba(i__main__
TreeNode
p1381
(dp1382
g2
(lp1383
I-1
aI-1
aI-1
aI-1
aI-1
asg34
g39
sbaI-1
aI-1
asg34
I78
sba(i__main__
TreeNode
p1384
(dp1385
g2
(lp1386
I-1
aI-1
aI-1
aI-1
aI-1
asg34
g39
sbaI-1
aI-1
a(i__main__
TreeNode
p1387
(dp1388
g2
(lp1389
I-1
aI-1
aI-1
aI-1
aI-1
asg34
g39
sbasg34
I67
sba(i__main__
TreeNode
p1390
(dp1391
g2
(lp1392
I-1
aI-1
aI-1
aI-1
aI-1
asg34
g39
sba(i__main__
TreeNode
p1393
(dp1394
g2
(lp1395
I-1
aI-1
aI-1
aI-1
aI-1
asg34
g35
sbaI-1
aI-1
asg34
I195
sba(i__main__
TreeNode
p1396
(dp1397
g2
(lp1398
(i__main__
TreeNode
p1399
(dp1400
g2
(lp1401
(i__main__
TreeNode
p1402
(dp1403
g2
(lp1404
(i__main__
TreeNode
p1405
(dp1406
g2
(lp1407
I-1
aI-1
aI-1
aI-1
aI-1
asg34
g39
sba(i__main__
TreeNode
p1408
(dp1409
g2
(lp1410
I-1
aI-1
aI-1
aI-1
aI-1
asg34
g39
sbaI-1
aI-1
aI-1
asg34
I208
sbaI-1
a(i__main__
TreeNode
p1411
(dp1412
g2
(lp1413
I-1
aI-1
aI-1
aI-1
aI-1
asg34
g39
sbaI-1
aI-1
asg34
I204
sba(i__main__
TreeNode
p1414
(dp1415
g2
(lp1416
I-1
aI-1
aI-1
aI-1
aI-1
asg34
g35
sbaI-1
aI-1
aI-1
asg34
I205
sba(i__main__
TreeNode
p1417
(dp1418
g2
(lp1419
(i__main__
TreeNode
p1420
(dp1421
g2
(lp1422
(i__main__
TreeNode
p1423
(dp1424
g2
(lp1425
I-1
aI-1
aI-1
aI-1
aI-1
asg34
g39
sba(i__main__
TreeNode
p1426
(dp1427
g2
(lp1428
I-1
aI-1
aI-1
aI-1
aI-1
asg34
g39
sbaI-1
aI-1
aI-1
asg34
I253
sbaI-1
aI-1
a(i__main__
TreeNode
p1429
(dp1430
g2
(lp1431
I-1
aI-1
aI-1
aI-1
aI-1
asg34
g35
sbaI-1
asg34
I244
sbasg34
I164
sba(i__main__
TreeNode
p1432
(dp1433
g2
(lp1434
I-1
aI-1
aI-1
aI-1
aI-1
asg34
g39
sba(i__main__
TreeNode
p1435
(dp1436
g2
(lp1437
I-1
aI-1
aI-1
aI-1
aI-1
asg34
g39
sba(i__main__
TreeNode
p1438
(dp1439
g2
(lp1440
I-1
aI-1
aI-1
aI-1
aI-1
asg34
g35
sba(i__main__
TreeNode
p1441
(dp1442
g2
(lp1443
I-1
aI-1
aI-1
aI-1
aI-1
asg34
g39
sbasg34
I55
sba(i__main__
TreeNode
p1444
(dp1445
g2
(lp1446
I-1
aI-1
aI-1
aI-1
aI-1
asg34
g39
sba(i__main__
TreeNode
p1447
(dp1448
g2
(lp1449
I-1
aI-1
aI-1
aI-1
aI-1
asg34
g39
sba(i__main__
TreeNode
p1450
(dp1451
g2
(lp1452
I-1
aI-1
aI-1
aI-1
aI-1
asg34
g39
sba(i__main__
TreeNode
p1453
(dp1454
g2
(lp1455
I-1
aI-1
aI-1
aI-1
aI-1
asg34
g39
sbasg34
I247
sba(i__main__
TreeNode
p1456
(dp1457
g2
(lp1458
I-1
aI-1
aI-1
aI-1
aI-1
asg34
g35
sba(i__main__
TreeNode
p1459
(dp1460
g2
(lp1461
I-1
aI-1
aI-1
aI-1
aI-1
asg34
g39
sbaI-1
aI-1
asg34
I68
sba(i__main__
TreeNode
p1462
(dp1463
g2
(lp1464
I-1
aI-1
aI-1
aI-1
aI-1
asg34
g39
sba(i__main__
TreeNode
p1465
(dp1466
g2
(lp1467
I-1
aI-1
aI-1
aI-1
aI-1
asg34
g39
sba(i__main__
TreeNode
p1468
(dp1469
g2
(lp1470
I-1
aI-1
aI-1
aI-1
aI-1
asg34
g39
sbasg34
I89
sb.