(i__main__
TreeNode
p0
(dp1
S'nodes'
p2
(lp3
(i__main__
TreeNode
p4
(dp5
g2
(lp6
(i__main__
TreeNode
p7
(dp8
g2
(lp9
(i__main__
TreeNode
p10
(dp11
g2
(lp12
(i__main__
TreeNode
p13
(dp14
g2
(lp15
(i__main__
TreeNode
p16
(dp17
g2
(lp18
(i__main__
TreeNode
p19
(dp20
g2
(lp21
(i__main__
TreeNode
p22
(dp23
g2
(lp24
(i__main__
TreeNode
p25
(dp26
g2
(lp27
(i__main__
TreeNode
p28
(dp29
g2
(lp30
(i__main__
TreeNode
p31
(dp32
g2
(lp33
(i__main__
TreeNode
p34
(dp35
g2
(lp36
I-1
aI-1
aI-1
aI-1
aI-1
asS'data'
p37
S'F'
p38
sba(i__main__
TreeNode
p39
(dp40
g2
(lp41
I-1
aI-1
aI-1
aI-1
aI-1
asg37
g38
sba(i__main__
TreeNode
p42
(dp43
g2
(lp44
I-1
aI-1
aI-1
aI-1
aI-1
asg37
g38
sba(i__main__
TreeNode
p45
(dp46
g2
(lp47
I-1
aI-1
aI-1
aI-1
aI-1
asg37
S'T'
p48
sba(i__main__
TreeNode
p49
(dp50
g2
(lp51
I-1
aI-1
aI-1
aI-1
aI-1
asg37
g38
sbasg37
I88
sba(i__main__
TreeNode
p52
(dp53
g2
(lp54
I-1
aI-1
aI-1
aI-1
aI-1
asg37
g38
sba(i__main__
TreeNode
p55
(dp56
g2
(lp57
(i__main__
TreeNode
p58
(dp59
g2
(lp60
I-1
aI-1
aI-1
aI-1
aI-1
asg37
g38
sba(i__main__
TreeNode
p61
(dp62
g2
(lp63
I-1
aI-1
aI-1
aI-1
aI-1
asg37
g38
sba(i__main__
TreeNode
p64
(dp65
g2
(lp66
I-1
aI-1
aI-1
aI-1
aI-1
asg37
g38
sba(i__main__
TreeNode
p67
(dp68
g2
(lp69
I-1
aI-1
aI-1
aI-1
aI-1
asg37
g38
sba(i__main__
TreeNode
p70
(dp71
g2
(lp72
(i__main__
TreeNode
p73
(dp74
g2
(lp75
I-1
aI-1
aI-1
aI-1
aI-1
asg37
g48
sba(i__main__
TreeNode
p76
(dp77
g2
(lp78
I-1
aI-1
aI-1
aI-1
aI-1
asg37
g48
sba(i__main__
TreeNode
p79
(dp80
g2
(lp81
I-1
aI-1
aI-1
aI-1
aI-1
asg37
g38
sba(i__main__
TreeNode
p82
(dp83
g2
(lp84
I-1
aI-1
aI-1
aI-1
aI-1
asg37
g48
sba(i__main__
TreeNode
p85
(dp86
g2
(lp87
I-1
aI-1
aI-1
aI-1
aI-1
asg37
g48
sbasg37
I86
sbasg37
I274
sba(i__main__
TreeNode
p88
(dp89
g2
(lp90
I-1
aI-1
aI-1
aI-1
aI-1
asg37
g38
sba(i__main__
TreeNode
p91
(dp92
g2
(lp93
(i__main__
TreeNode
p94
(dp95
g2
(lp96
I-1
aI-1
aI-1
aI-1
aI-1
asg37
g48
sba(i__main__
TreeNode
p97
(dp98
g2
(lp99
I-1
aI-1
aI-1
aI-1
aI-1
asg37
g38
sba(i__main__
TreeNode
p100
(dp101
g2
(lp102
I-1
aI-1
aI-1
aI-1
aI-1
asg37
g38
sba(i__main__
TreeNode
p103
(dp104
g2
(lp105
I-1
aI-1
aI-1
aI-1
aI-1
asg37
g38
sba(i__main__
TreeNode
p106
(dp107
g2
(lp108
I-1
aI-1
aI-1
aI-1
aI-1
asg37
g38
sbasg37
I171
sbasg37
I128
sba(i__main__
TreeNode
p109
(dp110
g2
(lp111
(i__main__
TreeNode
p112
(dp113
g2
(lp114
I-1
aI-1
aI-1
aI-1
aI-1
asg37
g38
sba(i__main__
TreeNode
p115
(dp116
g2
(lp117
I-1
aI-1
aI-1
aI-1
aI-1
asg37
g38
sba(i__main__
TreeNode
p118
(dp119
g2
(lp120
I-1
aI-1
aI-1
aI-1
aI-1
asg37
g38
sba(i__main__
TreeNode
p121
(dp122
g2
(lp123
I-1
aI-1
aI-1
aI-1
aI-1
asg37
g48
sba(i__main__
TreeNode
p124
(dp125
g2
(lp126
I-1
aI-1
aI-1
aI-1
aI-1
asg37
g38
sbasg37
I85
sba(i__main__
TreeNode
p127
(dp128
g2
(lp129
I-1
aI-1
aI-1
aI-1
aI-1
asg37
g38
sba(i__main__
TreeNode
p130
(dp131
g2
(lp132
(i__main__
TreeNode
p133
(dp134
g2
(lp135
(i__main__
TreeNode
p136
(dp137
g2
(lp138
I-1
aI-1
aI-1
aI-1
aI-1
asg37
g48
sba(i__main__
TreeNode
p139
(dp140
g2
(lp141
(i__main__
TreeNode
p142
(dp143
g2
(lp144
I-1
aI-1
aI-1
aI-1
aI-1
asg37
g38
sba(i__main__
TreeNode
p145
(dp146
g2
(lp147
I-1
aI-1
aI-1
aI-1
aI-1
asg37
g38
sba(i__main__
TreeNode
p148
(dp149
g2
(lp150
I-1
aI-1
aI-1
aI-1
aI-1
asg37
g38
sba(i__main__
TreeNode
p151
(dp152
g2
(lp153
I-1
aI-1
aI-1
aI-1
aI-1
asg37
g48
sba(i__main__
TreeNode
p154
(dp155
g2
(lp156
I-1
aI-1
aI-1
aI-1
aI-1
asg37
g38
sbasg37
I130
sba(i__main__
TreeNode
p157
(dp158
g2
(lp159
I-1
aI-1
aI-1
aI-1
aI-1
asg37
g48
sba(i__main__
TreeNode
p160
(dp161
g2
(lp162
I-1
aI-1
aI-1
aI-1
aI-1
asg37
g38
sba(i__main__
TreeNode
p163
(dp164
g2
(lp165
I-1
aI-1
aI-1
aI-1
aI-1
asg37
g48
sbasg37
I243
sba(i__main__
TreeNode
p166
(dp167
g2
(lp168
I-1
aI-1
aI-1
aI-1
aI-1
asg37
g38
sba(i__main__
TreeNode
p169
(dp170
g2
(lp171
I-1
aI-1
aI-1
aI-1
aI-1
asg37
g38
sba(i__main__
TreeNode
p172
(dp173
g2
(lp174
I-1
aI-1
aI-1
aI-1
aI-1
asg37
g38
sba(i__main__
TreeNode
p175
(dp176
g2
(lp177
(i__main__
TreeNode
p178
(dp179
g2
(lp180
I-1
aI-1
aI-1
aI-1
aI-1
asg37
g38
sba(i__main__
TreeNode
p181
(dp182
g2
(lp183
I-1
aI-1
aI-1
aI-1
aI-1
asg37
g48
sba(i__main__
TreeNode
p184
(dp185
g2
(lp186
I-1
aI-1
aI-1
aI-1
aI-1
asg37
g38
sba(i__main__
TreeNode
p187
(dp188
g2
(lp189
I-1
aI-1
aI-1
aI-1
aI-1
asg37
g38
sba(i__main__
TreeNode
p190
(dp191
g2
(lp192
I-1
aI-1
aI-1
aI-1
aI-1
asg37
g38
sbasg37
I184
sbasg37
I89
sba(i__main__
TreeNode
p193
(dp194
g2
(lp195
(i__main__
TreeNode
p196
(dp197
g2
(lp198
(i__main__
TreeNode
p199
(dp200
g2
(lp201
(i__main__
TreeNode
p202
(dp203
g2
(lp204
I-1
aI-1
aI-1
aI-1
aI-1
asg37
g38
sba(i__main__
TreeNode
p205
(dp206
g2
(lp207
(i__main__
TreeNode
p208
(dp209
g2
(lp210
I-1
aI-1
aI-1
aI-1
aI-1
asg37
g38
sba(i__main__
TreeNode
p211
(dp212
g2
(lp213
I-1
aI-1
aI-1
aI-1
aI-1
asg37
g38
sba(i__main__
TreeNode
p214
(dp215
g2
(lp216
I-1
aI-1
aI-1
aI-1
aI-1
asg37
g48
sba(i__main__
TreeNode
p217
(dp218
g2
(lp219
I-1
aI-1
aI-1
aI-1
aI-1
asg37
g38
sba(i__main__
TreeNode
p220
(dp221
g2
(lp222
I-1
aI-1
aI-1
aI-1
aI-1
asg37
g38
sbasg37
I266
sba(i__main__
TreeNode
p223
(dp224
g2
(lp225
(i__main__
TreeNode
p226
(dp227
g2
(lp228
I-1
aI-1
aI-1
aI-1
aI-1
asg37
g48
sba(i__main__
TreeNode
p229
(dp230
g2
(lp231
I-1
aI-1
aI-1
aI-1
aI-1
asg37
g38
sba(i__main__
TreeNode
p232
(dp233
g2
(lp234
I-1
aI-1
aI-1
aI-1
aI-1
asg37
g38
sba(i__main__
TreeNode
p235
(dp236
g2
(lp237
I-1
aI-1
aI-1
aI-1
aI-1
asg37
g38
sba(i__main__
TreeNode
p238
(dp239
g2
(lp240
I-1
aI-1
aI-1
aI-1
aI-1
asg37
g38
sbasg37
I185
sba(i__main__
TreeNode
p241
(dp242
g2
(lp243
I-1
aI-1
aI-1
aI-1
aI-1
asg37
g48
sba(i__main__
TreeNode
p244
(dp245
g2
(lp246
I-1
aI-1
aI-1
aI-1
aI-1
asg37
g38
sbasg37
I269
sba(i__main__
TreeNode
p247
(dp248
g2
(lp249
I-1
aI-1
aI-1
aI-1
aI-1
asg37
g38
sba(i__main__
TreeNode
p250
(dp251
g2
(lp252
(i__main__
TreeNode
p253
(dp254
g2
(lp255
I-1
aI-1
aI-1
aI-1
aI-1
asg37
g38
sba(i__main__
TreeNode
p256
(dp257
g2
(lp258
I-1
aI-1
aI-1
aI-1
aI-1
asg37
g48
sba(i__main__
TreeNode
p259
(dp260
g2
(lp261
I-1
aI-1
aI-1
aI-1
aI-1
asg37
g38
sba(i__main__
TreeNode
p262
(dp263
g2
(lp264
I-1
aI-1
aI-1
aI-1
aI-1
asg37
g38
sba(i__main__
TreeNode
p265
(dp266
g2
(lp267
I-1
aI-1
aI-1
aI-1
aI-1
asg37
g38
sbasg37
I268
sba(i__main__
TreeNode
p268
(dp269
g2
(lp270
(i__main__
TreeNode
p271
(dp272
g2
(lp273
I-1
aI-1
aI-1
aI-1
aI-1
asg37
g48
sba(i__main__
TreeNode
p274
(dp275
g2
(lp276
I-1
aI-1
aI-1
aI-1
aI-1
asg37
g48
sba(i__main__
TreeNode
p277
(dp278
g2
(lp279
I-1
aI-1
aI-1
aI-1
aI-1
asg37
g48
sba(i__main__
TreeNode
p280
(dp281
g2
(lp282
I-1
aI-1
aI-1
aI-1
aI-1
asg37
g48
sba(i__main__
TreeNode
p283
(dp284
g2
(lp285
I-1
aI-1
aI-1
aI-1
aI-1
asg37
g48
sbasg37
I273
sba(i__main__
TreeNode
p286
(dp287
g2
(lp288
I-1
aI-1
aI-1
aI-1
aI-1
asg37
g38
sbasg37
I176
sba(i__main__
TreeNode
p289
(dp290
g2
(lp291
I-1
aI-1
aI-1
aI-1
aI-1
asg37
g38
sba(i__main__
TreeNode
p292
(dp293
g2
(lp294
I-1
aI-1
aI-1
aI-1
aI-1
asg37
g38
sba(i__main__
TreeNode
p295
(dp296
g2
(lp297
I-1
aI-1
aI-1
aI-1
aI-1
asg37
g38
sba(i__main__
TreeNode
p298
(dp299
g2
(lp300
(i__main__
TreeNode
p301
(dp302
g2
(lp303
(i__main__
TreeNode
p304
(dp305
g2
(lp306
I-1
aI-1
aI-1
aI-1
aI-1
asg37
g38
sba(i__main__
TreeNode
p307
(dp308
g2
(lp309
(i__main__
TreeNode
p310
(dp311
g2
(lp312
I-1
aI-1
aI-1
aI-1
aI-1
asg37
g38
sba(i__main__
TreeNode
p313
(dp314
g2
(lp315
I-1
aI-1
aI-1
aI-1
aI-1
asg37
g38
sba(i__main__
TreeNode
p316
(dp317
g2
(lp318
I-1
aI-1
aI-1
aI-1
aI-1
asg37
g38
sba(i__main__
TreeNode
p319
(dp320
g2
(lp321
I-1
aI-1
aI-1
aI-1
aI-1
asg37
g38
sba(i__main__
TreeNode
p322
(dp323
g2
(lp324
I-1
aI-1
aI-1
aI-1
aI-1
asg37
g48
sbasg37
I173
sba(i__main__
TreeNode
p325
(dp326
g2
(lp327
I-1
aI-1
aI-1
aI-1
aI-1
asg37
g38
sba(i__main__
TreeNode
p328
(dp329
g2
(lp330
I-1
aI-1
aI-1
aI-1
aI-1
asg37
g38
sba(i__main__
TreeNode
p331
(dp332
g2
(lp333
I-1
aI-1
aI-1
aI-1
aI-1
asg37
g38
sbasg37
I129
sba(i__main__
TreeNode
p334
(dp335
g2
(lp336
I-1
aI-1
aI-1
aI-1
aI-1
asg37
g48
sba(i__main__
TreeNode
p337
(dp338
g2
(lp339
I-1
aI-1
aI-1
aI-1
aI-1
asg37
g48
sba(i__main__
TreeNode
p340
(dp341
g2
(lp342
I-1
aI-1
aI-1
aI-1
aI-1
asg37
g48
sba(i__main__
TreeNode
p343
(dp344
g2
(lp345
I-1
aI-1
aI-1
aI-1
aI-1
asg37
g48
sbasg37
I270
sbasg37
I264
sbasg37
I267
sba(i__main__
TreeNode
p346
(dp347
g2
(lp348
I-1
aI-1
aI-1
aI-1
aI-1
asg37
g38
sba(i__main__
TreeNode
p349
(dp350
g2
(lp351
(i__main__
TreeNode
p352
(dp353
g2
(lp354
I-1
aI-1
aI-1
aI-1
aI-1
asg37
g48
sba(i__main__
TreeNode
p355
(dp356
g2
(lp357
I-1
aI-1
aI-1
aI-1
aI-1
asg37
g48
sba(i__main__
TreeNode
p358
(dp359
g2
(lp360
I-1
aI-1
aI-1
aI-1
aI-1
asg37
g38
sba(i__main__
TreeNode
p361
(dp362
g2
(lp363
I-1
aI-1
aI-1
aI-1
aI-1
asg37
g48
sba(i__main__
TreeNode
p364
(dp365
g2
(lp366
I-1
aI-1
aI-1
aI-1
aI-1
asg37
g48
sbasg37
I87
sba(i__main__
TreeNode
p367
(dp368
g2
(lp369
I-1
aI-1
aI-1
aI-1
aI-1
asg37
g38
sba(i__main__
TreeNode
p370
(dp371
g2
(lp372
I-1
aI-1
aI-1
aI-1
aI-1
asg37
g38
sbasg37
I182
sba(i__main__
TreeNode
p373
(dp374
g2
(lp375
(i__main__
TreeNode
p376
(dp377
g2
(lp378
(i__main__
TreeNode
p379
(dp380
g2
(lp381
(i__main__
TreeNode
p382
(dp383
g2
(lp384
I-1
aI-1
aI-1
aI-1
aI-1
asg37
g38
sba(i__main__
TreeNode
p385
(dp386
g2
(lp387
(i__main__
TreeNode
p388
(dp389
g2
(lp390
(i__main__
TreeNode
p391
(dp392
g2
(lp393
(i__main__
TreeNode
p394
(dp395
g2
(lp396
I-1
aI-1
aI-1
aI-1
aI-1
asg37
g38
sba(i__main__
TreeNode
p397
(dp398
g2
(lp399
I-1
aI-1
aI-1
aI-1
aI-1
asg37
g38
sba(i__main__
TreeNode
p400
(dp401
g2
(lp402
I-1
aI-1
aI-1
aI-1
aI-1
asg37
g38
sba(i__main__
TreeNode
p403
(dp404
g2
(lp405
I-1
aI-1
aI-1
aI-1
aI-1
asg37
g38
sba(i__main__
TreeNode
p406
(dp407
g2
(lp408
I-1
aI-1
aI-1
aI-1
aI-1
asg37
g38
sbasg37
I181
sba(i__main__
TreeNode
p409
(dp410
g2
(lp411
I-1
aI-1
aI-1
aI-1
aI-1
asg37
g48
sba(i__main__
TreeNode
p412
(dp413
g2
(lp414
I-1
aI-1
aI-1
aI-1
aI-1
asg37
g38
sba(i__main__
TreeNode
p415
(dp416
g2
(lp417
I-1
aI-1
aI-1
aI-1
aI-1
asg37
g38
sba(i__main__
TreeNode
p418
(dp419
g2
(lp420
I-1
aI-1
aI-1
aI-1
aI-1
asg37
g38
sbasg37
I271
sba(i__main__
TreeNode
p421
(dp422
g2
(lp423
I-1
aI-1
aI-1
aI-1
aI-1
asg37
g38
sba(i__main__
TreeNode
p424
(dp425
g2
(lp426
I-1
aI-1
aI-1
aI-1
aI-1
asg37
g48
sba(i__main__
TreeNode
p427
(dp428
g2
(lp429
I-1
aI-1
aI-1
aI-1
aI-1
asg37
g38
sba(i__main__
TreeNode
p430
(dp431
g2
(lp432
I-1
aI-1
aI-1
aI-1
aI-1
asg37
g38
sbasg37
I177
sba(i__main__
TreeNode
p433
(dp434
g2
(lp435
I-1
aI-1
aI-1
aI-1
aI-1
asg37
g38
sba(i__main__
TreeNode
p436
(dp437
g2
(lp438
I-1
aI-1
aI-1
aI-1
aI-1
asg37
g38
sba(i__main__
TreeNode
p439
(dp440
g2
(lp441
I-1
aI-1
aI-1
aI-1
aI-1
asg37
g38
sbasg37
I82
sba(i__main__
TreeNode
p442
(dp443
g2
(lp444
I-1
aI-1
aI-1
aI-1
aI-1
asg37
g48
sba(i__main__
TreeNode
p445
(dp446
g2
(lp447
I-1
aI-1
aI-1
aI-1
aI-1
asg37
g38
sba(i__main__
TreeNode
p448
(dp449
g2
(lp450
I-1
aI-1
aI-1
aI-1
aI-1
asg37
g38
sba(i__main__
TreeNode
p451
(dp452
g2
(lp453
I-1
aI-1
aI-1
aI-1
aI-1
asg37
g38
sbasg37
I175
sba(i__main__
TreeNode
p454
(dp455
g2
(lp456
(i__main__
TreeNode
p457
(dp458
g2
(lp459
(i__main__
TreeNode
p460
(dp461
g2
(lp462
(i__main__
TreeNode
p463
(dp464
g2
(lp465
I-1
aI-1
aI-1
aI-1
aI-1
asg37
g38
sba(i__main__
TreeNode
p466
(dp467
g2
(lp468
I-1
aI-1
aI-1
aI-1
aI-1
asg37
g38
sba(i__main__
TreeNode
p469
(dp470
g2
(lp471
I-1
aI-1
aI-1
aI-1
aI-1
asg37
g38
sba(i__main__
TreeNode
p472
(dp473
g2
(lp474
I-1
aI-1
aI-1
aI-1
aI-1
asg37
g38
sba(i__main__
TreeNode
p475
(dp476
g2
(lp477
I-1
aI-1
aI-1
aI-1
aI-1
asg37
g38
sbasg37
I121
sba(i__main__
TreeNode
p478
(dp479
g2
(lp480
I-1
aI-1
aI-1
aI-1
aI-1
asg37
g38
sba(i__main__
TreeNode
p481
(dp482
g2
(lp483
I-1
aI-1
aI-1
aI-1
aI-1
asg37
g38
sba(i__main__
TreeNode
p484
(dp485
g2
(lp486
I-1
aI-1
aI-1
aI-1
aI-1
asg37
g38
sba(i__main__
TreeNode
p487
(dp488
g2
(lp489
I-1
aI-1
aI-1
aI-1
aI-1
asg37
g38
sbasg37
I97
sba(i__main__
TreeNode
p490
(dp491
g2
(lp492
I-1
aI-1
aI-1
aI-1
aI-1
asg37
g38
sba(i__main__
TreeNode
p493
(dp494
g2
(lp495
I-1
aI-1
aI-1
aI-1
aI-1
asg37
g38
sba(i__main__
TreeNode
p496
(dp497
g2
(lp498
I-1
aI-1
aI-1
aI-1
aI-1
asg37
g38
sba(i__main__
TreeNode
p499
(dp500
g2
(lp501
I-1
aI-1
aI-1
aI-1
aI-1
asg37
g38
sbasg37
I187
sba(i__main__
TreeNode
p502
(dp503
g2
(lp504
I-1
aI-1
aI-1
aI-1
aI-1
asg37
g38
sba(i__main__
TreeNode
p505
(dp506
g2
(lp507
I-1
aI-1
aI-1
aI-1
aI-1
asg37
g38
sba(i__main__
TreeNode
p508
(dp509
g2
(lp510
I-1
aI-1
aI-1
aI-1
aI-1
asg37
g38
sbasg37
I120
sba(i__main__
TreeNode
p511
(dp512
g2
(lp513
(i__main__
TreeNode
p514
(dp515
g2
(lp516
(i__main__
TreeNode
p517
(dp518
g2
(lp519
(i__main__
TreeNode
p520
(dp521
g2
(lp522
I-1
aI-1
aI-1
aI-1
aI-1
asg37
g38
sba(i__main__
TreeNode
p523
(dp524
g2
(lp525
I-1
aI-1
aI-1
aI-1
aI-1
asg37
g38
sba(i__main__
TreeNode
p526
(dp527
g2
(lp528
I-1
aI-1
aI-1
aI-1
aI-1
asg37
g38
sba(i__main__
TreeNode
p529
(dp530
g2
(lp531
I-1
aI-1
aI-1
aI-1
aI-1
asg37
g38
sba(i__main__
TreeNode
p532
(dp533
g2
(lp534
I-1
aI-1
aI-1
aI-1
aI-1
asg37
g38
sbasg37
I125
sba(i__main__
TreeNode
p535
(dp536
g2
(lp537
I-1
aI-1
aI-1
aI-1
aI-1
asg37
g38
sba(i__main__
TreeNode
p538
(dp539
g2
(lp540
I-1
aI-1
aI-1
aI-1
aI-1
asg37
g38
sba(i__main__
TreeNode
p541
(dp542
g2
(lp543
I-1
aI-1
aI-1
aI-1
aI-1
asg37
g38
sba(i__main__
TreeNode
p544
(dp545
g2
(lp546
I-1
aI-1
aI-1
aI-1
aI-1
asg37
g38
sbasg37
I164
sba(i__main__
TreeNode
p547
(dp548
g2
(lp549
I-1
aI-1
aI-1
aI-1
aI-1
asg37
g38
sba(i__main__
TreeNode
p550
(dp551
g2
(lp552
I-1
aI-1
aI-1
aI-1
aI-1
asg37
g38
sba(i__main__
TreeNode
p553
(dp554
g2
(lp555
I-1
aI-1
aI-1
aI-1
aI-1
asg37
g38
sba(i__main__
TreeNode
p556
(dp557
g2
(lp558
I-1
aI-1
aI-1
aI-1
aI-1
asg37
g38
sbasg37
I169
sba(i__main__
TreeNode
p559
(dp560
g2
(lp561
(i__main__
TreeNode
p562
(dp563
g2
(lp564
(i__main__
TreeNode
p565
(dp566
g2
(lp567
I-1
aI-1
aI-1
aI-1
aI-1
asg37
g38
sba(i__main__
TreeNode
p568
(dp569
g2
(lp570
I-1
aI-1
aI-1
aI-1
aI-1
asg37
g38
sba(i__main__
TreeNode
p571
(dp572
g2
(lp573
I-1
aI-1
aI-1
aI-1
aI-1
asg37
g38
sba(i__main__
TreeNode
p574
(dp575
g2
(lp576
I-1
aI-1
aI-1
aI-1
aI-1
asg37
g38
sba(i__main__
TreeNode
p577
(dp578
g2
(lp579
I-1
aI-1
aI-1
aI-1
aI-1
asg37
g38
sbasg37
I167
sba(i__main__
TreeNode
p580
(dp581
g2
(lp582
I-1
aI-1
aI-1
aI-1
aI-1
asg37
g38
sba(i__main__
TreeNode
p583
(dp584
g2
(lp585
I-1
aI-1
aI-1
aI-1
aI-1
asg37
g38
sba(i__main__
TreeNode
p586
(dp587
g2
(lp588
I-1
aI-1
aI-1
aI-1
aI-1
asg37
g38
sba(i__main__
TreeNode
p589
(dp590
g2
(lp591
I-1
aI-1
aI-1
aI-1
aI-1
asg37
g38
sbasg37
I123
sba(i__main__
TreeNode
p592
(dp593
g2
(lp594
(i__main__
TreeNode
p595
(dp596
g2
(lp597
(i__main__
TreeNode
p598
(dp599
g2
(lp600
(i__main__
TreeNode
p601
(dp602
g2
(lp603
(i__main__
TreeNode
p604
(dp605
g2
(lp606
I-1
aI-1
aI-1
aI-1
aI-1
asg37
g38
sba(i__main__
TreeNode
p607
(dp608
g2
(lp609
I-1
aI-1
aI-1
aI-1
aI-1
asg37
g38
sba(i__main__
TreeNode
p610
(dp611
g2
(lp612
I-1
aI-1
aI-1
aI-1
aI-1
asg37
g38
sba(i__main__
TreeNode
p613
(dp614
g2
(lp615
I-1
aI-1
aI-1
aI-1
aI-1
asg37
g38
sba(i__main__
TreeNode
p616
(dp617
g2
(lp618
I-1
aI-1
aI-1
aI-1
aI-1
asg37
g38
sbasg37
I122
sba(i__main__
TreeNode
p619
(dp620
g2
(lp621
I-1
aI-1
aI-1
aI-1
aI-1
asg37
g38
sba(i__main__
TreeNode
p622
(dp623
g2
(lp624
I-1
aI-1
aI-1
aI-1
aI-1
asg37
g38
sba(i__main__
TreeNode
p625
(dp626
g2
(lp627
I-1
aI-1
aI-1
aI-1
aI-1
asg37
g38
sba(i__main__
TreeNode
p628
(dp629
g2
(lp630
I-1
aI-1
aI-1
aI-1
aI-1
asg37
g38
sbasg37
I94
sba(i__main__
TreeNode
p631
(dp632
g2
(lp633
I-1
aI-1
aI-1
aI-1
aI-1
asg37
g38
sba(i__main__
TreeNode
p634
(dp635
g2
(lp636
I-1
aI-1
aI-1
aI-1
aI-1
asg37
g38
sba(i__main__
TreeNode
p637
(dp638
g2
(lp639
I-1
aI-1
aI-1
aI-1
aI-1
asg37
g38
sba(i__main__
TreeNode
p640
(dp641
g2
(lp642
I-1
aI-1
aI-1
aI-1
aI-1
asg37
g38
sbasg37
I188
sba(i__main__
TreeNode
p643
(dp644
g2
(lp645
I-1
aI-1
aI-1
aI-1
aI-1
asg37
g38
sba(i__main__
TreeNode
p646
(dp647
g2
(lp648
I-1
aI-1
aI-1
aI-1
aI-1
asg37
g38
sba(i__main__
TreeNode
p649
(dp650
g2
(lp651
I-1
aI-1
aI-1
aI-1
aI-1
asg37
g38
sba(i__main__
TreeNode
p652
(dp653
g2
(lp654
I-1
aI-1
aI-1
aI-1
aI-1
asg37
g38
sbasg37
I172
sbasg37
I83
sba(i__main__
TreeNode
p655
(dp656
g2
(lp657
I-1
aI-1
aI-1
aI-1
aI-1
asg37
g38
sba(i__main__
TreeNode
p658
(dp659
g2
(lp660
(i__main__
TreeNode
p661
(dp662
g2
(lp663
I-1
aI-1
aI-1
aI-1
aI-1
asg37
g38
sba(i__main__
TreeNode
p664
(dp665
g2
(lp666
I-1
aI-1
aI-1
aI-1
aI-1
asg37
g38
sba(i__main__
TreeNode
p667
(dp668
g2
(lp669
(i__main__
TreeNode
p670
(dp671
g2
(lp672
I-1
aI-1
aI-1
aI-1
aI-1
asg37
g38
sba(i__main__
TreeNode
p673
(dp674
g2
(lp675
I-1
aI-1
aI-1
aI-1
aI-1
asg37
g38
sba(i__main__
TreeNode
p676
(dp677
g2
(lp678
I-1
aI-1
aI-1
aI-1
aI-1
asg37
g38
sba(i__main__
TreeNode
p679
(dp680
g2
(lp681
I-1
aI-1
aI-1
aI-1
aI-1
asg37
g38
sba(i__main__
TreeNode
p682
(dp683
g2
(lp684
I-1
aI-1
aI-1
aI-1
aI-1
asg37
g38
sbasg37
I180
sba(i__main__
TreeNode
p685
(dp686
g2
(lp687
I-1
aI-1
aI-1
aI-1
aI-1
asg37
g38
sba(i__main__
TreeNode
p688
(dp689
g2
(lp690
I-1
aI-1
aI-1
aI-1
aI-1
asg37
g38
sbasg37
I265
sba(i__main__
TreeNode
p691
(dp692
g2
(lp693
I-1
aI-1
aI-1
aI-1
aI-1
asg37
g48
sba(i__main__
TreeNode
p694
(dp695
g2
(lp696
(i__main__
TreeNode
p697
(dp698
g2
(lp699
I-1
aI-1
aI-1
aI-1
aI-1
asg37
g38
sba(i__main__
TreeNode
p700
(dp701
g2
(lp702
I-1
aI-1
aI-1
aI-1
aI-1
asg37
g38
sba(i__main__
TreeNode
p703
(dp704
g2
(lp705
I-1
aI-1
aI-1
aI-1
aI-1
asg37
g38
sba(i__main__
TreeNode
p706
(dp707
g2
(lp708
I-1
aI-1
aI-1
aI-1
aI-1
asg37
g38
sba(i__main__
TreeNode
p709
(dp710
g2
(lp711
I-1
aI-1
aI-1
aI-1
aI-1
asg37
g38
sbasg37
I183
sbasg37
I166
sba(i__main__
TreeNode
p712
(dp713
g2
(lp714
I-1
aI-1
aI-1
aI-1
aI-1
asg37
g38
sba(i__main__
TreeNode
p715
(dp716
g2
(lp717
I-1
aI-1
aI-1
aI-1
aI-1
asg37
g38
sba(i__main__
TreeNode
p718
(dp719
g2
(lp720
I-1
aI-1
aI-1
aI-1
aI-1
asg37
g48
sba(i__main__
TreeNode
p721
(dp722
g2
(lp723
I-1
aI-1
aI-1
aI-1
aI-1
asg37
g38
sbasg37
I135
sba(i__main__
TreeNode
p724
(dp725
g2
(lp726
(i__main__
TreeNode
p727
(dp728
g2
(lp729
(i__main__
TreeNode
p730
(dp731
g2
(lp732
I-1
aI-1
aI-1
aI-1
aI-1
asg37
g38
sba(i__main__
TreeNode
p733
(dp734
g2
(lp735
I-1
aI-1
aI-1
aI-1
aI-1
asg37
g38
sba(i__main__
TreeNode
p736
(dp737
g2
(lp738
I-1
aI-1
aI-1
aI-1
aI-1
asg37
g38
sba(i__main__
TreeNode
p739
(dp740
g2
(lp741
I-1
aI-1
aI-1
aI-1
aI-1
asg37
g38
sba(i__main__
TreeNode
p742
(dp743
g2
(lp744
I-1
aI-1
aI-1
aI-1
aI-1
asg37
g38
sbasg37
I140
sba(i__main__
TreeNode
p745
(dp746
g2
(lp747
I-1
aI-1
aI-1
aI-1
aI-1
asg37
g38
sba(i__main__
TreeNode
p748
(dp749
g2
(lp750
I-1
aI-1
aI-1
aI-1
aI-1
asg37
g38
sba(i__main__
TreeNode
p751
(dp752
g2
(lp753
I-1
aI-1
aI-1
aI-1
aI-1
asg37
g48
sba(i__main__
TreeNode
p754
(dp755
g2
(lp756
I-1
aI-1
aI-1
aI-1
aI-1
asg37
g38
sbasg37
I259
sba(i__main__
TreeNode
p757
(dp758
g2
(lp759
(i__main__
TreeNode
p760
(dp761
g2
(lp762
(i__main__
TreeNode
p763
(dp764
g2
(lp765
(i__main__
TreeNode
p766
(dp767
g2
(lp768
(i__main__
TreeNode
p769
(dp770
g2
(lp771
(i__main__
TreeNode
p772
(dp773
g2
(lp774
I-1
aI-1
aI-1
aI-1
aI-1
asg37
g38
sba(i__main__
TreeNode
p775
(dp776
g2
(lp777
I-1
aI-1
aI-1
aI-1
aI-1
asg37
g38
sba(i__main__
TreeNode
p778
(dp779
g2
(lp780
I-1
aI-1
aI-1
aI-1
aI-1
asg37
g38
sba(i__main__
TreeNode
p781
(dp782
g2
(lp783
I-1
aI-1
aI-1
aI-1
aI-1
asg37
g38
sba(i__main__
TreeNode
p784
(dp785
g2
(lp786
I-1
aI-1
aI-1
aI-1
aI-1
asg37
g38
sbasg37
I96
sba(i__main__
TreeNode
p787
(dp788
g2
(lp789
I-1
aI-1
aI-1
aI-1
aI-1
asg37
g38
sba(i__main__
TreeNode
p790
(dp791
g2
(lp792
I-1
aI-1
aI-1
aI-1
aI-1
asg37
g38
sba(i__main__
TreeNode
p793
(dp794
g2
(lp795
I-1
aI-1
aI-1
aI-1
aI-1
asg37
g38
sba(i__main__
TreeNode
p796
(dp797
g2
(lp798
I-1
aI-1
aI-1
aI-1
aI-1
asg37
g38
sbasg37
I178
sba(i__main__
TreeNode
p799
(dp800
g2
(lp801
I-1
aI-1
aI-1
aI-1
aI-1
asg37
g38
sba(i__main__
TreeNode
p802
(dp803
g2
(lp804
I-1
aI-1
aI-1
aI-1
aI-1
asg37
g38
sba(i__main__
TreeNode
p805
(dp806
g2
(lp807
I-1
aI-1
aI-1
aI-1
aI-1
asg37
g38
sba(i__main__
TreeNode
p808
(dp809
g2
(lp810
I-1
aI-1
aI-1
aI-1
aI-1
asg37
g38
sbasg37
I174
sba(i__main__
TreeNode
p811
(dp812
g2
(lp813
I-1
aI-1
aI-1
aI-1
aI-1
asg37
g48
sba(i__main__
TreeNode
p814
(dp815
g2
(lp816
I-1
aI-1
aI-1
aI-1
aI-1
asg37
g38
sba(i__main__
TreeNode
p817
(dp818
g2
(lp819
I-1
aI-1
aI-1
aI-1
aI-1
asg37
g38
sba(i__main__
TreeNode
p820
(dp821
g2
(lp822
I-1
aI-1
aI-1
aI-1
aI-1
asg37
g38
sbasg37
I186
sba(i__main__
TreeNode
p823
(dp824
g2
(lp825
I-1
aI-1
aI-1
aI-1
aI-1
asg37
g38
sba(i__main__
TreeNode
p826
(dp827
g2
(lp828
I-1
aI-1
aI-1
aI-1
aI-1
asg37
g38
sba(i__main__
TreeNode
p829
(dp830
g2
(lp831
I-1
aI-1
aI-1
aI-1
aI-1
asg37
g48
sba(i__main__
TreeNode
p832
(dp833
g2
(lp834
I-1
aI-1
aI-1
aI-1
aI-1
asg37
g48
sbasg37
I155
sba(i__main__
TreeNode
p835
(dp836
g2
(lp837
(i__main__
TreeNode
p838
(dp839
g2
(lp840
I-1
aI-1
aI-1
aI-1
aI-1
asg37
g38
sba(i__main__
TreeNode
p841
(dp842
g2
(lp843
I-1
aI-1
aI-1
aI-1
aI-1
asg37
g48
sba(i__main__
TreeNode
p844
(dp845
g2
(lp846
I-1
aI-1
aI-1
aI-1
aI-1
asg37
g38
sba(i__main__
TreeNode
p847
(dp848
g2
(lp849
I-1
aI-1
aI-1
aI-1
aI-1
asg37
g48
sba(i__main__
TreeNode
p850
(dp851
g2
(lp852
I-1
aI-1
aI-1
aI-1
aI-1
asg37
g48
sbasg37
I134
sba(i__main__
TreeNode
p853
(dp854
g2
(lp855
(i__main__
TreeNode
p856
(dp857
g2
(lp858
(i__main__
TreeNode
p859
(dp860
g2
(lp861
I-1
aI-1
aI-1
aI-1
aI-1
asg37
g38
sba(i__main__
TreeNode
p862
(dp863
g2
(lp864
I-1
aI-1
aI-1
aI-1
aI-1
asg37
g38
sba(i__main__
TreeNode
p865
(dp866
g2
(lp867
(i__main__
TreeNode
p868
(dp869
g2
(lp870
I-1
aI-1
aI-1
aI-1
aI-1
asg37
g38
sba(i__main__
TreeNode
p871
(dp872
g2
(lp873
I-1
aI-1
aI-1
aI-1
aI-1
asg37
g38
sba(i__main__
TreeNode
p874
(dp875
g2
(lp876
I-1
aI-1
aI-1
aI-1
aI-1
asg37
g38
sba(i__main__
TreeNode
p877
(dp878
g2
(lp879
I-1
aI-1
aI-1
aI-1
aI-1
asg37
g48
sba(i__main__
TreeNode
p880
(dp881
g2
(lp882
I-1
aI-1
aI-1
aI-1
aI-1
asg37
g38
sbasg37
I102
sba(i__main__
TreeNode
p883
(dp884
g2
(lp885
I-1
aI-1
aI-1
aI-1
aI-1
asg37
g48
sba(i__main__
TreeNode
p886
(dp887
g2
(lp888
I-1
aI-1
aI-1
aI-1
aI-1
asg37
g38
sbasg37
I124
sba(i__main__
TreeNode
p889
(dp890
g2
(lp891
(i__main__
TreeNode
p892
(dp893
g2
(lp894
I-1
aI-1
aI-1
aI-1
aI-1
asg37
g48
sba(i__main__
TreeNode
p895
(dp896
g2
(lp897
I-1
aI-1
aI-1
aI-1
aI-1
asg37
g38
sba(i__main__
TreeNode
p898
(dp899
g2
(lp900
I-1
aI-1
aI-1
aI-1
aI-1
asg37
g48
sba(i__main__
TreeNode
p901
(dp902
g2
(lp903
I-1
aI-1
aI-1
aI-1
aI-1
asg37
g48
sba(i__main__
TreeNode
p904
(dp905
g2
(lp906
I-1
aI-1
aI-1
aI-1
aI-1
asg37
g48
sbasg37
I156
sba(i__main__
TreeNode
p907
(dp908
g2
(lp909
I-1
aI-1
aI-1
aI-1
aI-1
asg37
g48
sba(i__main__
TreeNode
p910
(dp911
g2
(lp912
I-1
aI-1
aI-1
aI-1
aI-1
asg37
g38
sba(i__main__
TreeNode
p913
(dp914
g2
(lp915
I-1
aI-1
aI-1
aI-1
aI-1
asg37
g38
sbasg37
I158
sbasg37
I263
sba(i__main__
TreeNode
p916
(dp917
g2
(lp918
(i__main__
TreeNode
p919
(dp920
g2
(lp921
I-1
aI-1
aI-1
aI-1
aI-1
asg37
g48
sba(i__main__
TreeNode
p922
(dp923
g2
(lp924
I-1
aI-1
aI-1
aI-1
aI-1
asg37
g38
sba(i__main__
TreeNode
p925
(dp926
g2
(lp927
I-1
aI-1
aI-1
aI-1
aI-1
asg37
g38
sba(i__main__
TreeNode
p928
(dp929
g2
(lp930
I-1
aI-1
aI-1
aI-1
aI-1
asg37
g38
sba(i__main__
TreeNode
p931
(dp932
g2
(lp933
I-1
aI-1
aI-1
aI-1
aI-1
asg37
g38
sbasg37
I126
sba(i__main__
TreeNode
p934
(dp935
g2
(lp936
I-1
aI-1
aI-1
aI-1
aI-1
asg37
g48
sba(i__main__
TreeNode
p937
(dp938
g2
(lp939
I-1
aI-1
aI-1
aI-1
aI-1
asg37
g38
sba(i__main__
TreeNode
p940
(dp941
g2
(lp942
I-1
aI-1
aI-1
aI-1
aI-1
asg37
g48
sbasg37
I16
sba(i__main__
TreeNode
p943
(dp944
g2
(lp945
(i__main__
TreeNode
p946
(dp947
g2
(lp948
(i__main__
TreeNode
p949
(dp950
g2
(lp951
I-1
aI-1
aI-1
aI-1
aI-1
asg37
g38
sba(i__main__
TreeNode
p952
(dp953
g2
(lp954
I-1
aI-1
aI-1
aI-1
aI-1
asg37
g38
sba(i__main__
TreeNode
p955
(dp956
g2
(lp957
I-1
aI-1
aI-1
aI-1
aI-1
asg37
g48
sba(i__main__
TreeNode
p958
(dp959
g2
(lp960
I-1
aI-1
aI-1
aI-1
aI-1
asg37
g38
sba(i__main__
TreeNode
p961
(dp962
g2
(lp963
I-1
aI-1
aI-1
aI-1
aI-1
asg37
g38
sbasg37
I149
sba(i__main__
TreeNode
p964
(dp965
g2
(lp966
(i__main__
TreeNode
p967
(dp968
g2
(lp969
(i__main__
TreeNode
p970
(dp971
g2
(lp972
I-1
aI-1
aI-1
aI-1
aI-1
asg37
g38
sba(i__main__
TreeNode
p973
(dp974
g2
(lp975
I-1
aI-1
aI-1
aI-1
aI-1
asg37
g38
sba(i__main__
TreeNode
p976
(dp977
g2
(lp978
(i__main__
TreeNode
p979
(dp980
g2
(lp981
I-1
aI-1
aI-1
aI-1
aI-1
asg37
g48
sba(i__main__
TreeNode
p982
(dp983
g2
(lp984
I-1
aI-1
aI-1
aI-1
aI-1
asg37
g38
sba(i__main__
TreeNode
p985
(dp986
g2
(lp987
I-1
aI-1
aI-1
aI-1
aI-1
asg37
g38
sba(i__main__
TreeNode
p988
(dp989
g2
(lp990
I-1
aI-1
aI-1
aI-1
aI-1
asg37
g38
sba(i__main__
TreeNode
p991
(dp992
g2
(lp993
I-1
aI-1
aI-1
aI-1
aI-1
asg37
g48
sbasg37
I95
sba(i__main__
TreeNode
p994
(dp995
g2
(lp996
(i__main__
TreeNode
p997
(dp998
g2
(lp999
(i__main__
TreeNode
p1000
(dp1001
g2
(lp1002
I-1
aI-1
aI-1
aI-1
aI-1
asg37
g38
sba(i__main__
TreeNode
p1003
(dp1004
g2
(lp1005
I-1
aI-1
aI-1
aI-1
aI-1
asg37
g38
sba(i__main__
TreeNode
p1006
(dp1007
g2
(lp1008
I-1
aI-1
aI-1
aI-1
aI-1
asg37
g38
sba(i__main__
TreeNode
p1009
(dp1010
g2
(lp1011
(i__main__
TreeNode
p1012
(dp1013
g2
(lp1014
I-1
aI-1
aI-1
aI-1
aI-1
asg37
g38
sba(i__main__
TreeNode
p1015
(dp1016
g2
(lp1017
I-1
aI-1
aI-1
aI-1
aI-1
asg37
g38
sba(i__main__
TreeNode
p1018
(dp1019
g2
(lp1020
I-1
aI-1
aI-1
aI-1
aI-1
asg37
g38
sba(i__main__
TreeNode
p1021
(dp1022
g2
(lp1023
I-1
aI-1
aI-1
aI-1
aI-1
asg37
g38
sba(i__main__
TreeNode
p1024
(dp1025
g2
(lp1026
I-1
aI-1
aI-1
aI-1
aI-1
asg37
g38
sbasg37
I103
sba(i__main__
TreeNode
p1027
(dp1028
g2
(lp1029
I-1
aI-1
aI-1
aI-1
aI-1
asg37
g38
sbasg37
I141
sba(i__main__
TreeNode
p1030
(dp1031
g2
(lp1032
I-1
aI-1
aI-1
aI-1
aI-1
asg37
g38
sba(i__main__
TreeNode
p1033
(dp1034
g2
(lp1035
I-1
aI-1
aI-1
aI-1
aI-1
asg37
g38
sba(i__main__
TreeNode
p1036
(dp1037
g2
(lp1038
I-1
aI-1
aI-1
aI-1
aI-1
asg37
g38
sba(i__main__
TreeNode
p1039
(dp1040
g2
(lp1041
I-1
aI-1
aI-1
aI-1
aI-1
asg37
g38
sbasg37
I137
sba(i__main__
TreeNode
p1042
(dp1043
g2
(lp1044
(i__main__
TreeNode
p1045
(dp1046
g2
(lp1047
(i__main__
TreeNode
p1048
(dp1049
g2
(lp1050
(i__main__
TreeNode
p1051
(dp1052
g2
(lp1053
(i__main__
TreeNode
p1054
(dp1055
g2
(lp1056
I-1
aI-1
aI-1
aI-1
aI-1
asg37
g38
sba(i__main__
TreeNode
p1057
(dp1058
g2
(lp1059
I-1
aI-1
aI-1
aI-1
aI-1
asg37
g48
sba(i__main__
TreeNode
p1060
(dp1061
g2
(lp1062
(i__main__
TreeNode
p1063
(dp1064
g2
(lp1065
I-1
aI-1
aI-1
aI-1
aI-1
asg37
g48
sba(i__main__
TreeNode
p1066
(dp1067
g2
(lp1068
I-1
aI-1
aI-1
aI-1
aI-1
asg37
g38
sba(i__main__
TreeNode
p1069
(dp1070
g2
(lp1071
I-1
aI-1
aI-1
aI-1
aI-1
asg37
g38
sba(i__main__
TreeNode
p1072
(dp1073
g2
(lp1074
I-1
aI-1
aI-1
aI-1
aI-1
asg37
g38
sba(i__main__
TreeNode
p1075
(dp1076
g2
(lp1077
I-1
aI-1
aI-1
aI-1
aI-1
asg37
g38
sbasg37
I91
sba(i__main__
TreeNode
p1078
(dp1079
g2
(lp1080
I-1
aI-1
aI-1
aI-1
aI-1
asg37
g38
sba(i__main__
TreeNode
p1081
(dp1082
g2
(lp1083
I-1
aI-1
aI-1
aI-1
aI-1
asg37
g38
sbasg37
I157
sba(i__main__
TreeNode
p1084
(dp1085
g2
(lp1086
I-1
aI-1
aI-1
aI-1
aI-1
asg37
g38
sba(i__main__
TreeNode
p1087
(dp1088
g2
(lp1089
(i__main__
TreeNode
p1090
(dp1091
g2
(lp1092
I-1
aI-1
aI-1
aI-1
aI-1
asg37
g38
sba(i__main__
TreeNode
p1093
(dp1094
g2
(lp1095
I-1
aI-1
aI-1
aI-1
aI-1
asg37
g38
sba(i__main__
TreeNode
p1096
(dp1097
g2
(lp1098
I-1
aI-1
aI-1
aI-1
aI-1
asg37
g38
sba(i__main__
TreeNode
p1099
(dp1100
g2
(lp1101
I-1
aI-1
aI-1
aI-1
aI-1
asg37
g38
sba(i__main__
TreeNode
p1102
(dp1103
g2
(lp1104
I-1
aI-1
aI-1
aI-1
aI-1
asg37
g38
sbasg37
I106
sba(i__main__
TreeNode
p1105
(dp1106
g2
(lp1107
I-1
aI-1
aI-1
aI-1
aI-1
asg37
g38
sba(i__main__
TreeNode
p1108
(dp1109
g2
(lp1110
(i__main__
TreeNode
p1111
(dp1112
g2
(lp1113
I-1
aI-1
aI-1
aI-1
aI-1
asg37
g38
sba(i__main__
TreeNode
p1114
(dp1115
g2
(lp1116
I-1
aI-1
aI-1
aI-1
aI-1
asg37
g38
sba(i__main__
TreeNode
p1117
(dp1118
g2
(lp1119
I-1
aI-1
aI-1
aI-1
aI-1
asg37
g38
sba(i__main__
TreeNode
p1120
(dp1121
g2
(lp1122
I-1
aI-1
aI-1
aI-1
aI-1
asg37
g38
sba(i__main__
TreeNode
p1123
(dp1124
g2
(lp1125
I-1
aI-1
aI-1
aI-1
aI-1
asg37
g38
sbasg37
I256
sbasg37
I131
sba(i__main__
TreeNode
p1126
(dp1127
g2
(lp1128
I-1
aI-1
aI-1
aI-1
aI-1
asg37
g38
sba(i__main__
TreeNode
p1129
(dp1130
g2
(lp1131
I-1
aI-1
aI-1
aI-1
aI-1
asg37
g38
sba(i__main__
TreeNode
p1132
(dp1133
g2
(lp1134
I-1
aI-1
aI-1
aI-1
aI-1
asg37
g38
sba(i__main__
TreeNode
p1135
(dp1136
g2
(lp1137
I-1
aI-1
aI-1
aI-1
aI-1
asg37
g38
sbasg37
I233
sba(i__main__
TreeNode
p1138
(dp1139
g2
(lp1140
I-1
aI-1
aI-1
aI-1
aI-1
asg37
g38
sba(i__main__
TreeNode
p1141
(dp1142
g2
(lp1143
I-1
aI-1
aI-1
aI-1
aI-1
asg37
g38
sba(i__main__
TreeNode
p1144
(dp1145
g2
(lp1146
I-1
aI-1
aI-1
aI-1
aI-1
asg37
g38
sba(i__main__
TreeNode
p1147
(dp1148
g2
(lp1149
I-1
aI-1
aI-1
aI-1
aI-1
asg37
g38
sbasg37
I143
sbasg37
I150
sba(i__main__
TreeNode
p1150
(dp1151
g2
(lp1152
I-1
aI-1
aI-1
aI-1
aI-1
asg37
g38
sba(i__main__
TreeNode
p1153
(dp1154
g2
(lp1155
I-1
aI-1
aI-1
aI-1
aI-1
asg37
g38
sba(i__main__
TreeNode
p1156
(dp1157
g2
(lp1158
I-1
aI-1
aI-1
aI-1
aI-1
asg37
g38
sba(i__main__
TreeNode
p1159
(dp1160
g2
(lp1161
(i__main__
TreeNode
p1162
(dp1163
g2
(lp1164
(i__main__
TreeNode
p1165
(dp1166
g2
(lp1167
I-1
aI-1
aI-1
aI-1
aI-1
asg37
g38
sba(i__main__
TreeNode
p1168
(dp1169
g2
(lp1170
I-1
aI-1
aI-1
aI-1
aI-1
asg37
g48
sba(i__main__
TreeNode
p1171
(dp1172
g2
(lp1173
I-1
aI-1
aI-1
aI-1
aI-1
asg37
g38
sba(i__main__
TreeNode
p1174
(dp1175
g2
(lp1176
(i__main__
TreeNode
p1177
(dp1178
g2
(lp1179
(i__main__
TreeNode
p1180
(dp1181
g2
(lp1182
I-1
aI-1
aI-1
aI-1
aI-1
asg37
g38
sba(i__main__
TreeNode
p1183
(dp1184
g2
(lp1185
(i__main__
TreeNode
p1186
(dp1187
g2
(lp1188
I-1
aI-1
aI-1
aI-1
aI-1
asg37
g38
sba(i__main__
TreeNode
p1189
(dp1190
g2
(lp1191
I-1
aI-1
aI-1
aI-1
aI-1
asg37
g38
sba(i__main__
TreeNode
p1192
(dp1193
g2
(lp1194
I-1
aI-1
aI-1
aI-1
aI-1
asg37
g38
sba(i__main__
TreeNode
p1195
(dp1196
g2
(lp1197
I-1
aI-1
aI-1
aI-1
aI-1
asg37
g38
sba(i__main__
TreeNode
p1198
(dp1199
g2
(lp1200
(i__main__
TreeNode
p1201
(dp1202
g2
(lp1203
I-1
aI-1
aI-1
aI-1
aI-1
asg37
g38
sba(i__main__
TreeNode
p1204
(dp1205
g2
(lp1206
I-1
aI-1
aI-1
aI-1
aI-1
asg37
g38
sba(i__main__
TreeNode
p1207
(dp1208
g2
(lp1209
I-1
aI-1
aI-1
aI-1
aI-1
asg37
g38
sba(i__main__
TreeNode
p1210
(dp1211
g2
(lp1212
I-1
aI-1
aI-1
aI-1
aI-1
asg37
g38
sba(i__main__
TreeNode
p1213
(dp1214
g2
(lp1215
I-1
aI-1
aI-1
aI-1
aI-1
asg37
g38
sbasg37
I213
sbasg37
I257
sba(i__main__
TreeNode
p1216
(dp1217
g2
(lp1218
(i__main__
TreeNode
p1219
(dp1220
g2
(lp1221
I-1
aI-1
aI-1
aI-1
aI-1
asg37
g38
sba(i__main__
TreeNode
p1222
(dp1223
g2
(lp1224
I-1
aI-1
aI-1
aI-1
aI-1
asg37
g38
sba(i__main__
TreeNode
p1225
(dp1226
g2
(lp1227
(i__main__
TreeNode
p1228
(dp1229
g2
(lp1230
I-1
aI-1
aI-1
aI-1
aI-1
asg37
g38
sba(i__main__
TreeNode
p1231
(dp1232
g2
(lp1233
I-1
aI-1
aI-1
aI-1
aI-1
asg37
g38
sba(i__main__
TreeNode
p1234
(dp1235
g2
(lp1236
I-1
aI-1
aI-1
aI-1
aI-1
asg37
g38
sba(i__main__
TreeNode
p1237
(dp1238
g2
(lp1239
I-1
aI-1
aI-1
aI-1
aI-1
asg37
g38
sba(i__main__
TreeNode
p1240
(dp1241
g2
(lp1242
I-1
aI-1
aI-1
aI-1
aI-1
asg37
g38
sbasg37
I101
sba(i__main__
TreeNode
p1243
(dp1244
g2
(lp1245
I-1
aI-1
aI-1
aI-1
aI-1
asg37
g38
sba(i__main__
TreeNode
p1246
(dp1247
g2
(lp1248
I-1
aI-1
aI-1
aI-1
aI-1
asg37
g38
sbasg37
I214
sba(i__main__
TreeNode
p1249
(dp1250
g2
(lp1251
I-1
aI-1
aI-1
aI-1
aI-1
asg37
g38
sba(i__main__
TreeNode
p1252
(dp1253
g2
(lp1254
I-1
aI-1
aI-1
aI-1
aI-1
asg37
g38
sbasg37
I253
sba(i__main__
TreeNode
p1255
(dp1256
g2
(lp1257
I-1
aI-1
aI-1
aI-1
aI-1
asg37
g38
sba(i__main__
TreeNode
p1258
(dp1259
g2
(lp1260
I-1
aI-1
aI-1
aI-1
aI-1
asg37
g38
sba(i__main__
TreeNode
p1261
(dp1262
g2
(lp1263
I-1
aI-1
aI-1
aI-1
aI-1
asg37
g38
sba(i__main__
TreeNode
p1264
(dp1265
g2
(lp1266
(i__main__
TreeNode
p1267
(dp1268
g2
(lp1269
I-1
aI-1
aI-1
aI-1
aI-1
asg37
g38
sba(i__main__
TreeNode
p1270
(dp1271
g2
(lp1272
I-1
aI-1
aI-1
aI-1
aI-1
asg37
g48
sba(i__main__
TreeNode
p1273
(dp1274
g2
(lp1275
I-1
aI-1
aI-1
aI-1
aI-1
asg37
g48
sba(i__main__
TreeNode
p1276
(dp1277
g2
(lp1278
I-1
aI-1
aI-1
aI-1
aI-1
asg37
g48
sba(i__main__
TreeNode
p1279
(dp1280
g2
(lp1281
I-1
aI-1
aI-1
aI-1
aI-1
asg37
g48
sbasg37
I225
sbasg37
I132
sba(i__main__
TreeNode
p1282
(dp1283
g2
(lp1284
I-1
aI-1
aI-1
aI-1
aI-1
asg37
g38
sbasg37
I142
sba(i__main__
TreeNode
p1285
(dp1286
g2
(lp1287
I-1
aI-1
aI-1
aI-1
aI-1
asg37
g48
sba(i__main__
TreeNode
p1288
(dp1289
g2
(lp1290
(i__main__
TreeNode
p1291
(dp1292
g2
(lp1293
I-1
aI-1
aI-1
aI-1
aI-1
asg37
g38
sba(i__main__
TreeNode
p1294
(dp1295
g2
(lp1296
I-1
aI-1
aI-1
aI-1
aI-1
asg37
g38
sba(i__main__
TreeNode
p1297
(dp1298
g2
(lp1299
(i__main__
TreeNode
p1300
(dp1301
g2
(lp1302
I-1
aI-1
aI-1
aI-1
aI-1
asg37
g38
sba(i__main__
TreeNode
p1303
(dp1304
g2
(lp1305
I-1
aI-1
aI-1
aI-1
aI-1
asg37
g38
sba(i__main__
TreeNode
p1306
(dp1307
g2
(lp1308
I-1
aI-1
aI-1
aI-1
aI-1
asg37
g38
sba(i__main__
TreeNode
p1309
(dp1310
g2
(lp1311
I-1
aI-1
aI-1
aI-1
aI-1
asg37
g38
sba(i__main__
TreeNode
p1312
(dp1313
g2
(lp1314
I-1
aI-1
aI-1
aI-1
aI-1
asg37
g38
sbasg37
I136
sba(i__main__
TreeNode
p1315
(dp1316
g2
(lp1317
I-1
aI-1
aI-1
aI-1
aI-1
asg37
g38
sba(i__main__
TreeNode
p1318
(dp1319
g2
(lp1320
I-1
aI-1
aI-1
aI-1
aI-1
asg37
g38
sbasg37
I222
sba(i__main__
TreeNode
p1321
(dp1322
g2
(lp1323
(i__main__
TreeNode
p1324
(dp1325
g2
(lp1326
I-1
aI-1
aI-1
aI-1
aI-1
asg37
g38
sba(i__main__
TreeNode
p1327
(dp1328
g2
(lp1329
I-1
aI-1
aI-1
aI-1
aI-1
asg37
g38
sba(i__main__
TreeNode
p1330
(dp1331
g2
(lp1332
I-1
aI-1
aI-1
aI-1
aI-1
asg37
g38
sba(i__main__
TreeNode
p1333
(dp1334
g2
(lp1335
I-1
aI-1
aI-1
aI-1
aI-1
asg37
g38
sba(i__main__
TreeNode
p1336
(dp1337
g2
(lp1338
I-1
aI-1
aI-1
aI-1
aI-1
asg37
g38
sbasg37
I249
sba(i__main__
TreeNode
p1339
(dp1340
g2
(lp1341
I-1
aI-1
aI-1
aI-1
aI-1
asg37
g38
sbasg37
I144
sbasg37
I217
sba(i__main__
TreeNode
p1342
(dp1343
g2
(lp1344
(i__main__
TreeNode
p1345
(dp1346
g2
(lp1347
(i__main__
TreeNode
p1348
(dp1349
g2
(lp1350
I-1
aI-1
aI-1
aI-1
aI-1
asg37
g48
sba(i__main__
TreeNode
p1351
(dp1352
g2
(lp1353
I-1
aI-1
aI-1
aI-1
aI-1
asg37
g38
sba(i__main__
TreeNode
p1354
(dp1355
g2
(lp1356
(i__main__
TreeNode
p1357
(dp1358
g2
(lp1359
(i__main__
TreeNode
p1360
(dp1361
g2
(lp1362
I-1
aI-1
aI-1
aI-1
aI-1
asg37
g38
sba(i__main__
TreeNode
p1363
(dp1364
g2
(lp1365
I-1
aI-1
aI-1
aI-1
aI-1
asg37
g38
sba(i__main__
TreeNode
p1366
(dp1367
g2
(lp1368
I-1
aI-1
aI-1
aI-1
aI-1
asg37
g38
sba(i__main__
TreeNode
p1369
(dp1370
g2
(lp1371
I-1
aI-1
aI-1
aI-1
aI-1
asg37
g38
sba(i__main__
TreeNode
p1372
(dp1373
g2
(lp1374
I-1
aI-1
aI-1
aI-1
aI-1
asg37
g38
sbasg37
I110
sba(i__main__
TreeNode
p1375
(dp1376
g2
(lp1377
I-1
aI-1
aI-1
aI-1
aI-1
asg37
g48
sba(i__main__
TreeNode
p1378
(dp1379
g2
(lp1380
I-1
aI-1
aI-1
aI-1
aI-1
asg37
g38
sba(i__main__
TreeNode
p1381
(dp1382
g2
(lp1383
I-1
aI-1
aI-1
aI-1
aI-1
asg37
g38
sba(i__main__
TreeNode
p1384
(dp1385
g2
(lp1386
I-1
aI-1
aI-1
aI-1
aI-1
asg37
g38
sbasg37
I5
sba(i__main__
TreeNode
p1387
(dp1388
g2
(lp1389
I-1
aI-1
aI-1
aI-1
aI-1
asg37
g38
sba(i__main__
TreeNode
p1390
(dp1391
g2
(lp1392
I-1
aI-1
aI-1
aI-1
aI-1
asg37
g38
sbasg37
I230
sba(i__main__
TreeNode
p1393
(dp1394
g2
(lp1395
I-1
aI-1
aI-1
aI-1
aI-1
asg37
g38
sba(i__main__
TreeNode
p1396
(dp1397
g2
(lp1398
I-1
aI-1
aI-1
aI-1
aI-1
asg37
g38
sba(i__main__
TreeNode
p1399
(dp1400
g2
(lp1401
I-1
aI-1
aI-1
aI-1
aI-1
asg37
g38
sba(i__main__
TreeNode
p1402
(dp1403
g2
(lp1404
I-1
aI-1
aI-1
aI-1
aI-1
asg37
g38
sbasg37
I231
sba(i__main__
TreeNode
p1405
(dp1406
g2
(lp1407
(i__main__
TreeNode
p1408
(dp1409
g2
(lp1410
I-1
aI-1
aI-1
aI-1
aI-1
asg37
g48
sba(i__main__
TreeNode
p1411
(dp1412
g2
(lp1413
I-1
aI-1
aI-1
aI-1
aI-1
asg37
g48
sba(i__main__
TreeNode
p1414
(dp1415
g2
(lp1416
I-1
aI-1
aI-1
aI-1
aI-1
asg37
g48
sba(i__main__
TreeNode
p1417
(dp1418
g2
(lp1419
I-1
aI-1
aI-1
aI-1
aI-1
asg37
g48
sba(i__main__
TreeNode
p1420
(dp1421
g2
(lp1422
I-1
aI-1
aI-1
aI-1
aI-1
asg37
g48
sbasg37
I151
sba(i__main__
TreeNode
p1423
(dp1424
g2
(lp1425
(i__main__
TreeNode
p1426
(dp1427
g2
(lp1428
I-1
aI-1
aI-1
aI-1
aI-1
asg37
g48
sba(i__main__
TreeNode
p1429
(dp1430
g2
(lp1431
I-1
aI-1
aI-1
aI-1
aI-1
asg37
g38
sba(i__main__
TreeNode
p1432
(dp1433
g2
(lp1434
I-1
aI-1
aI-1
aI-1
aI-1
asg37
g38
sba(i__main__
TreeNode
p1435
(dp1436
g2
(lp1437
I-1
aI-1
aI-1
aI-1
aI-1
asg37
g38
sba(i__main__
TreeNode
p1438
(dp1439
g2
(lp1440
(i__main__
TreeNode
p1441
(dp1442
g2
(lp1443
(i__main__
TreeNode
p1444
(dp1445
g2
(lp1446
I-1
aI-1
aI-1
aI-1
aI-1
asg37
g38
sba(i__main__
TreeNode
p1447
(dp1448
g2
(lp1449
I-1
aI-1
aI-1
aI-1
aI-1
asg37
g38
sba(i__main__
TreeNode
p1450
(dp1451
g2
(lp1452
I-1
aI-1
aI-1
aI-1
aI-1
asg37
g38
sba(i__main__
TreeNode
p1453
(dp1454
g2
(lp1455
I-1
aI-1
aI-1
aI-1
aI-1
asg37
g38
sba(i__main__
TreeNode
p1456
(dp1457
g2
(lp1458
I-1
aI-1
aI-1
aI-1
aI-1
asg37
g38
sbasg37
I145
sba(i__main__
TreeNode
p1459
(dp1460
g2
(lp1461
I-1
aI-1
aI-1
aI-1
aI-1
asg37
g48
sba(i__main__
TreeNode
p1462
(dp1463
g2
(lp1464
I-1
aI-1
aI-1
aI-1
aI-1
asg37
g38
sba(i__main__
TreeNode
p1465
(dp1466
g2
(lp1467
I-1
aI-1
aI-1
aI-1
aI-1
asg37
g38
sba(i__main__
TreeNode
p1468
(dp1469
g2
(lp1470
I-1
aI-1
aI-1
aI-1
aI-1
asg37
g38
sbasg37
I221
sbasg37
I223
sbasg37
I247
sba(i__main__
TreeNode
p1471
(dp1472
g2
(lp1473
(i__main__
TreeNode
p1474
(dp1475
g2
(lp1476
(i__main__
TreeNode
p1477
(dp1478
g2
(lp1479
(i__main__
TreeNode
p1480
(dp1481
g2
(lp1482
I-1
aI-1
aI-1
aI-1
aI-1
asg37
g38
sba(i__main__
TreeNode
p1483
(dp1484
g2
(lp1485
I-1
aI-1
aI-1
aI-1
aI-1
asg37
g38
sba(i__main__
TreeNode
p1486
(dp1487
g2
(lp1488
I-1
aI-1
aI-1
aI-1
aI-1
asg37
g38
sba(i__main__
TreeNode
p1489
(dp1490
g2
(lp1491
I-1
aI-1
aI-1
aI-1
aI-1
asg37
g38
sba(i__main__
TreeNode
p1492
(dp1493
g2
(lp1494
I-1
aI-1
aI-1
aI-1
aI-1
asg37
g38
sbasg37
I138
sba(i__main__
TreeNode
p1495
(dp1496
g2
(lp1497
I-1
aI-1
aI-1
aI-1
aI-1
asg37
g38
sba(i__main__
TreeNode
p1498
(dp1499
g2
(lp1500
I-1
aI-1
aI-1
aI-1
aI-1
asg37
g38
sba(i__main__
TreeNode
p1501
(dp1502
g2
(lp1503
I-1
aI-1
aI-1
aI-1
aI-1
asg37
g38
sba(i__main__
TreeNode
p1504
(dp1505
g2
(lp1506
I-1
aI-1
aI-1
aI-1
aI-1
asg37
g48
sbasg37
I170
sba(i__main__
TreeNode
p1507
(dp1508
g2
(lp1509
I-1
aI-1
aI-1
aI-1
aI-1
asg37
g48
sba(i__main__
TreeNode
p1510
(dp1511
g2
(lp1512
I-1
aI-1
aI-1
aI-1
aI-1
asg37
g38
sba(i__main__
TreeNode
p1513
(dp1514
g2
(lp1515
I-1
aI-1
aI-1
aI-1
aI-1
asg37
g38
sba(i__main__
TreeNode
p1516
(dp1517
g2
(lp1518
I-1
aI-1
aI-1
aI-1
aI-1
asg37
g38
sbasg37
I15
sba(i__main__
TreeNode
p1519
(dp1520
g2
(lp1521
(i__main__
TreeNode
p1522
(dp1523
g2
(lp1524
(i__main__
TreeNode
p1525
(dp1526
g2
(lp1527
I-1
aI-1
aI-1
aI-1
aI-1
asg37
g38
sba(i__main__
TreeNode
p1528
(dp1529
g2
(lp1530
I-1
aI-1
aI-1
aI-1
aI-1
asg37
g38
sba(i__main__
TreeNode
p1531
(dp1532
g2
(lp1533
I-1
aI-1
aI-1
aI-1
aI-1
asg37
g38
sba(i__main__
TreeNode
p1534
(dp1535
g2
(lp1536
I-1
aI-1
aI-1
aI-1
aI-1
asg37
g48
sba(i__main__
TreeNode
p1537
(dp1538
g2
(lp1539
I-1
aI-1
aI-1
aI-1
aI-1
asg37
g38
sbasg37
I1
sba(i__main__
TreeNode
p1540
(dp1541
g2
(lp1542
I-1
aI-1
aI-1
aI-1
aI-1
asg37
g38
sba(i__main__
TreeNode
p1543
(dp1544
g2
(lp1545
I-1
aI-1
aI-1
aI-1
aI-1
asg37
g48
sba(i__main__
TreeNode
p1546
(dp1547
g2
(lp1548
I-1
aI-1
aI-1
aI-1
aI-1
asg37
g48
sba(i__main__
TreeNode
p1549
(dp1550
g2
(lp1551
(i__main__
TreeNode
p1552
(dp1553
g2
(lp1554
(i__main__
TreeNode
p1555
(dp1556
g2
(lp1557
I-1
aI-1
aI-1
aI-1
aI-1
asg37
g48
sba(i__main__
TreeNode
p1558
(dp1559
g2
(lp1560
I-1
aI-1
aI-1
aI-1
aI-1
asg37
g48
sba(i__main__
TreeNode
p1561
(dp1562
g2
(lp1563
I-1
aI-1
aI-1
aI-1
aI-1
asg37
g38
sba(i__main__
TreeNode
p1564
(dp1565
g2
(lp1566
I-1
aI-1
aI-1
aI-1
aI-1
asg37
g48
sba(i__main__
TreeNode
p1567
(dp1568
g2
(lp1569
I-1
aI-1
aI-1
aI-1
aI-1
asg37
g48
sbasg37
I159
sba(i__main__
TreeNode
p1570
(dp1571
g2
(lp1572
I-1
aI-1
aI-1
aI-1
aI-1
asg37
g38
sba(i__main__
TreeNode
p1573
(dp1574
g2
(lp1575
I-1
aI-1
aI-1
aI-1
aI-1
asg37
g38
sba(i__main__
TreeNode
p1576
(dp1577
g2
(lp1578
I-1
aI-1
aI-1
aI-1
aI-1
asg37
g38
sba(i__main__
TreeNode
p1579
(dp1580
g2
(lp1581
I-1
aI-1
aI-1
aI-1
aI-1
asg37
g38
sbasg37
I116
sbasg37
I152
sba(i__main__
TreeNode
p1582
(dp1583
g2
(lp1584
(i__main__
TreeNode
p1585
(dp1586
g2
(lp1587
(i__main__
TreeNode
p1588
(dp1589
g2
(lp1590
(i__main__
TreeNode
p1591
(dp1592
g2
(lp1593
(i__main__
TreeNode
p1594
(dp1595
g2
(lp1596
I-1
aI-1
aI-1
aI-1
aI-1
asg37
g38
sba(i__main__
TreeNode
p1597
(dp1598
g2
(lp1599
I-1
aI-1
aI-1
aI-1
aI-1
asg37
g38
sba(i__main__
TreeNode
p1600
(dp1601
g2
(lp1602
I-1
aI-1
aI-1
aI-1
aI-1
asg37
g48
sba(i__main__
TreeNode
p1603
(dp1604
g2
(lp1605
I-1
aI-1
aI-1
aI-1
aI-1
asg37
g38
sba(i__main__
TreeNode
p1606
(dp1607
g2
(lp1608
I-1
aI-1
aI-1
aI-1
aI-1
asg37
g38
sbasg37
I161
sba(i__main__
TreeNode
p1609
(dp1610
g2
(lp1611
I-1
aI-1
aI-1
aI-1
aI-1
asg37
g38
sba(i__main__
TreeNode
p1612
(dp1613
g2
(lp1614
I-1
aI-1
aI-1
aI-1
aI-1
asg37
g38
sba(i__main__
TreeNode
p1615
(dp1616
g2
(lp1617
I-1
aI-1
aI-1
aI-1
aI-1
asg37
g38
sba(i__main__
TreeNode
p1618
(dp1619
g2
(lp1620
I-1
aI-1
aI-1
aI-1
aI-1
asg37
g38
sbasg37
I104
sba(i__main__
TreeNode
p1621
(dp1622
g2
(lp1623
I-1
aI-1
aI-1
aI-1
aI-1
asg37
g48
sba(i__main__
TreeNode
p1624
(dp1625
g2
(lp1626
I-1
aI-1
aI-1
aI-1
aI-1
asg37
g38
sba(i__main__
TreeNode
p1627
(dp1628
g2
(lp1629
I-1
aI-1
aI-1
aI-1
aI-1
asg37
g38
sba(i__main__
TreeNode
p1630
(dp1631
g2
(lp1632
I-1
aI-1
aI-1
aI-1
aI-1
asg37
g38
sbasg37
I168
sba(i__main__
TreeNode
p1633
(dp1634
g2
(lp1635
I-1
aI-1
aI-1
aI-1
aI-1
asg37
g48
sba(i__main__
TreeNode
p1636
(dp1637
g2
(lp1638
I-1
aI-1
aI-1
aI-1
aI-1
asg37
g48
sba(i__main__
TreeNode
p1639
(dp1640
g2
(lp1641
I-1
aI-1
aI-1
aI-1
aI-1
asg37
g38
sba(i__main__
TreeNode
p1642
(dp1643
g2
(lp1644
I-1
aI-1
aI-1
aI-1
aI-1
asg37
g38
sbasg37
I12
sbasg37
I272
sba(i__main__
TreeNode
p1645
(dp1646
g2
(lp1647
(i__main__
TreeNode
p1648
(dp1649
g2
(lp1650
(i__main__
TreeNode
p1651
(dp1652
g2
(lp1653
(i__main__
TreeNode
p1654
(dp1655
g2
(lp1656
(i__main__
TreeNode
p1657
(dp1658
g2
(lp1659
(i__main__
TreeNode
p1660
(dp1661
g2
(lp1662
I-1
aI-1
aI-1
aI-1
aI-1
asg37
g38
sba(i__main__
TreeNode
p1663
(dp1664
g2
(lp1665
I-1
aI-1
aI-1
aI-1
aI-1
asg37
g38
sba(i__main__
TreeNode
p1666
(dp1667
g2
(lp1668
I-1
aI-1
aI-1
aI-1
aI-1
asg37
g38
sba(i__main__
TreeNode
p1669
(dp1670
g2
(lp1671
I-1
aI-1
aI-1
aI-1
aI-1
asg37
g38
sba(i__main__
TreeNode
p1672
(dp1673
g2
(lp1674
I-1
aI-1
aI-1
aI-1
aI-1
asg37
g38
sbasg37
I127
sba(i__main__
TreeNode
p1675
(dp1676
g2
(lp1677
I-1
aI-1
aI-1
aI-1
aI-1
asg37
g38
sba(i__main__
TreeNode
p1678
(dp1679
g2
(lp1680
I-1
aI-1
aI-1
aI-1
aI-1
asg37
g48
sba(i__main__
TreeNode
p1681
(dp1682
g2
(lp1683
(i__main__
TreeNode
p1684
(dp1685
g2
(lp1686
(i__main__
TreeNode
p1687
(dp1688
g2
(lp1689
I-1
aI-1
aI-1
aI-1
aI-1
asg37
g38
sba(i__main__
TreeNode
p1690
(dp1691
g2
(lp1692
I-1
aI-1
aI-1
aI-1
aI-1
asg37
g38
sba(i__main__
TreeNode
p1693
(dp1694
g2
(lp1695
I-1
aI-1
aI-1
aI-1
aI-1
asg37
g38
sba(i__main__
TreeNode
p1696
(dp1697
g2
(lp1698
I-1
aI-1
aI-1
aI-1
aI-1
asg37
g38
sba(i__main__
TreeNode
p1699
(dp1700
g2
(lp1701
I-1
aI-1
aI-1
aI-1
aI-1
asg37
g48
sbasg37
I20
sba(i__main__
TreeNode
p1702
(dp1703
g2
(lp1704
(i__main__
TreeNode
p1705
(dp1706
g2
(lp1707
I-1
aI-1
aI-1
aI-1
aI-1
asg37
g38
sba(i__main__
TreeNode
p1708
(dp1709
g2
(lp1710
I-1
aI-1
aI-1
aI-1
aI-1
asg37
g38
sba(i__main__
TreeNode
p1711
(dp1712
g2
(lp1713
I-1
aI-1
aI-1
aI-1
aI-1
asg37
g38
sba(i__main__
TreeNode
p1714
(dp1715
g2
(lp1716
I-1
aI-1
aI-1
aI-1
aI-1
asg37
g48
sba(i__main__
TreeNode
p1717
(dp1718
g2
(lp1719
I-1
aI-1
aI-1
aI-1
aI-1
asg37
g38
sbasg37
I2
sba(i__main__
TreeNode
p1720
(dp1721
g2
(lp1722
I-1
aI-1
aI-1
aI-1
aI-1
asg37
g48
sba(i__main__
TreeNode
p1723
(dp1724
g2
(lp1725
I-1
aI-1
aI-1
aI-1
aI-1
asg37
g48
sba(i__main__
TreeNode
p1726
(dp1727
g2
(lp1728
(i__main__
TreeNode
p1729
(dp1730
g2
(lp1731
I-1
aI-1
aI-1
aI-1
aI-1
asg37
g38
sba(i__main__
TreeNode
p1732
(dp1733
g2
(lp1734
I-1
aI-1
aI-1
aI-1
aI-1
asg37
g38
sba(i__main__
TreeNode
p1735
(dp1736
g2
(lp1737
I-1
aI-1
aI-1
aI-1
aI-1
asg37
g38
sba(i__main__
TreeNode
p1738
(dp1739
g2
(lp1740
I-1
aI-1
aI-1
aI-1
aI-1
asg37
g48
sba(i__main__
TreeNode
p1741
(dp1742
g2
(lp1743
I-1
aI-1
aI-1
aI-1
aI-1
asg37
g38
sbasg37
I18
sbasg37
I6
sba(i__main__
TreeNode
p1744
(dp1745
g2
(lp1746
(i__main__
TreeNode
p1747
(dp1748
g2
(lp1749
I-1
aI-1
aI-1
aI-1
aI-1
asg37
g38
sba(i__main__
TreeNode
p1750
(dp1751
g2
(lp1752
I-1
aI-1
aI-1
aI-1
aI-1
asg37
g48
sba(i__main__
TreeNode
p1753
(dp1754
g2
(lp1755
I-1
aI-1
aI-1
aI-1
aI-1
asg37
g38
sba(i__main__
TreeNode
p1756
(dp1757
g2
(lp1758
I-1
aI-1
aI-1
aI-1
aI-1
asg37
g38
sba(i__main__
TreeNode
p1759
(dp1760
g2
(lp1761
I-1
aI-1
aI-1
aI-1
aI-1
asg37
g38
sbasg37
I7
sbasg37
I81
sba(i__main__
TreeNode
p1762
(dp1763
g2
(lp1764
(i__main__
TreeNode
p1765
(dp1766
g2
(lp1767
(i__main__
TreeNode
p1768
(dp1769
g2
(lp1770
(i__main__
TreeNode
p1771
(dp1772
g2
(lp1773
(i__main__
TreeNode
p1774
(dp1775
g2
(lp1776
(i__main__
TreeNode
p1777
(dp1778
g2
(lp1779
(i__main__
TreeNode
p1780
(dp1781
g2
(lp1782
(i__main__
TreeNode
p1783
(dp1784
g2
(lp1785
(i__main__
TreeNode
p1786
(dp1787
g2
(lp1788
(i__main__
TreeNode
p1789
(dp1790
g2
(lp1791
(i__main__
TreeNode
p1792
(dp1793
g2
(lp1794
(i__main__
TreeNode
p1795
(dp1796
g2
(lp1797
(i__main__
TreeNode
p1798
(dp1799
g2
(lp1800
(i__main__
TreeNode
p1801
(dp1802
g2
(lp1803
I-1
aI-1
aI-1
aI-1
aI-1
asg37
g38
sba(i__main__
TreeNode
p1804
(dp1805
g2
(lp1806
(i__main__
TreeNode
p1807
(dp1808
g2
(lp1809
I-1
aI-1
aI-1
aI-1
aI-1
asg37
g38
sba(i__main__
TreeNode
p1810
(dp1811
g2
(lp1812
(i__main__
TreeNode
p1813
(dp1814
g2
(lp1815
(i__main__
TreeNode
p1816
(dp1817
g2
(lp1818
(i__main__
TreeNode
p1819
(dp1820
g2
(lp1821
(i__main__
TreeNode
p1822
(dp1823
g2
(lp1824
I-1
aI-1
aI-1
aI-1
aI-1
asg37
g48
sba(i__main__
TreeNode
p1825
(dp1826
g2
(lp1827
I-1
aI-1
aI-1
aI-1
aI-1
asg37
g48
sba(i__main__
TreeNode
p1828
(dp1829
g2
(lp1830
I-1
aI-1
aI-1
aI-1
aI-1
asg37
g48
sba(i__main__
TreeNode
p1831
(dp1832
g2
(lp1833
I-1
aI-1
aI-1
aI-1
aI-1
asg37
g48
sba(i__main__
TreeNode
p1834
(dp1835
g2
(lp1836
(i__main__
TreeNode
p1837
(dp1838
g2
(lp1839
I-1
aI-1
aI-1
aI-1
aI-1
asg37
g48
sba(i__main__
TreeNode
p1840
(dp1841
g2
(lp1842
I-1
aI-1
aI-1
aI-1
aI-1
asg37
g38
sba(i__main__
TreeNode
p1843
(dp1844
g2
(lp1845
I-1
aI-1
aI-1
aI-1
aI-1
asg37
g38
sba(i__main__
TreeNode
p1846
(dp1847
g2
(lp1848
I-1
aI-1
aI-1
aI-1
aI-1
asg37
g38
sba(i__main__
TreeNode
p1849
(dp1850
g2
(lp1851
I-1
aI-1
aI-1
aI-1
aI-1
asg37
g38
sbasg37
I198
sbasg37
I147
sba(i__main__
TreeNode
p1852
(dp1853
g2
(lp1854
(i__main__
TreeNode
p1855
(dp1856
g2
(lp1857
(i__main__
TreeNode
p1858
(dp1859
g2
(lp1860
I-1
aI-1
aI-1
aI-1
aI-1
asg37
g38
sba(i__main__
TreeNode
p1861
(dp1862
g2
(lp1863
I-1
aI-1
aI-1
aI-1
aI-1
asg37
g48
sba(i__main__
TreeNode
p1864
(dp1865
g2
(lp1866
I-1
aI-1
aI-1
aI-1
aI-1
asg37
g38
sba(i__main__
TreeNode
p1867
(dp1868
g2
(lp1869
I-1
aI-1
aI-1
aI-1
aI-1
asg37
g38
sba(i__main__
TreeNode
p1870
(dp1871
g2
(lp1872
I-1
aI-1
aI-1
aI-1
aI-1
asg37
g38
sbasg37
I218
sba(i__main__
TreeNode
p1873
(dp1874
g2
(lp1875
I-1
aI-1
aI-1
aI-1
aI-1
asg37
g48
sba(i__main__
TreeNode
p1876
(dp1877
g2
(lp1878
I-1
aI-1
aI-1
aI-1
aI-1
asg37
g38
sba(i__main__
TreeNode
p1879
(dp1880
g2
(lp1881
I-1
aI-1
aI-1
aI-1
aI-1
asg37
g38
sba(i__main__
TreeNode
p1882
(dp1883
g2
(lp1884
I-1
aI-1
aI-1
aI-1
aI-1
asg37
g38
sbasg37
I202
sba(i__main__
TreeNode
p1885
(dp1886
g2
(lp1887
(i__main__
TreeNode
p1888
(dp1889
g2
(lp1890
(i__main__
TreeNode
p1891
(dp1892
g2
(lp1893
(i__main__
TreeNode
p1894
(dp1895
g2
(lp1896
(i__main__
TreeNode
p1897
(dp1898
g2
(lp1899
I-1
aI-1
aI-1
aI-1
aI-1
asg37
g38
sba(i__main__
TreeNode
p1900
(dp1901
g2
(lp1902
(i__main__
TreeNode
p1903
(dp1904
g2
(lp1905
I-1
aI-1
aI-1
aI-1
aI-1
asg37
g38
sba(i__main__
TreeNode
p1906
(dp1907
g2
(lp1908
I-1
aI-1
aI-1
aI-1
aI-1
asg37
g38
sba(i__main__
TreeNode
p1909
(dp1910
g2
(lp1911
I-1
aI-1
aI-1
aI-1
aI-1
asg37
g38
sba(i__main__
TreeNode
p1912
(dp1913
g2
(lp1914
I-1
aI-1
aI-1
aI-1
aI-1
asg37
g38
sba(i__main__
TreeNode
p1915
(dp1916
g2
(lp1917
I-1
aI-1
aI-1
aI-1
aI-1
asg37
g38
sbasg37
I228
sba(i__main__
TreeNode
p1918
(dp1919
g2
(lp1920
I-1
aI-1
aI-1
aI-1
aI-1
asg37
g38
sba(i__main__
TreeNode
p1921
(dp1922
g2
(lp1923
I-1
aI-1
aI-1
aI-1
aI-1
asg37
g38
sba(i__main__
TreeNode
p1924
(dp1925
g2
(lp1926
I-1
aI-1
aI-1
aI-1
aI-1
asg37
g38
sbasg37
I162
sba(i__main__
TreeNode
p1927
(dp1928
g2
(lp1929
I-1
aI-1
aI-1
aI-1
aI-1
asg37
g48
sba(i__main__
TreeNode
p1930
(dp1931
g2
(lp1932
I-1
aI-1
aI-1
aI-1
aI-1
asg37
g38
sba(i__main__
TreeNode
p1933
(dp1934
g2
(lp1935
I-1
aI-1
aI-1
aI-1
aI-1
asg37
g38
sba(i__main__
TreeNode
p1936
(dp1937
g2
(lp1938
I-1
aI-1
aI-1
aI-1
aI-1
asg37
g38
sbasg37
I239
sba(i__main__
TreeNode
p1939
(dp1940
g2
(lp1941
I-1
aI-1
aI-1
aI-1
aI-1
asg37
g38
sba(i__main__
TreeNode
p1942
(dp1943
g2
(lp1944
I-1
aI-1
aI-1
aI-1
aI-1
asg37
g38
sba(i__main__
TreeNode
p1945
(dp1946
g2
(lp1947
(i__main__
TreeNode
p1948
(dp1949
g2
(lp1950
I-1
aI-1
aI-1
aI-1
aI-1
asg37
g38
sba(i__main__
TreeNode
p1951
(dp1952
g2
(lp1953
I-1
aI-1
aI-1
aI-1
aI-1
asg37
g38
sba(i__main__
TreeNode
p1954
(dp1955
g2
(lp1956
I-1
aI-1
aI-1
aI-1
aI-1
asg37
g48
sba(i__main__
TreeNode
p1957
(dp1958
g2
(lp1959
I-1
aI-1
aI-1
aI-1
aI-1
asg37
g38
sba(i__main__
TreeNode
p1960
(dp1961
g2
(lp1962
I-1
aI-1
aI-1
aI-1
aI-1
asg37
g38
sbasg37
I146
sba(i__main__
TreeNode
p1963
(dp1964
g2
(lp1965
I-1
aI-1
aI-1
aI-1
aI-1
asg37
g38
sbasg37
I92
sba(i__main__
TreeNode
p1966
(dp1967
g2
(lp1968
I-1
aI-1
aI-1
aI-1
aI-1
asg37
g38
sba(i__main__
TreeNode
p1969
(dp1970
g2
(lp1971
(i__main__
TreeNode
p1972
(dp1973
g2
(lp1974
I-1
aI-1
aI-1
aI-1
aI-1
asg37
g38
sba(i__main__
TreeNode
p1975
(dp1976
g2
(lp1977
I-1
aI-1
aI-1
aI-1
aI-1
asg37
g38
sba(i__main__
TreeNode
p1978
(dp1979
g2
(lp1980
I-1
aI-1
aI-1
aI-1
aI-1
asg37
g38
sba(i__main__
TreeNode
p1981
(dp1982
g2
(lp1983
I-1
aI-1
aI-1
aI-1
aI-1
asg37
g48
sba(i__main__
TreeNode
p1984
(dp1985
g2
(lp1986
I-1
aI-1
aI-1
aI-1
aI-1
asg37
g38
sbasg37
I201
sba(i__main__
TreeNode
p1987
(dp1988
g2
(lp1989
I-1
aI-1
aI-1
aI-1
aI-1
asg37
g38
sba(i__main__
TreeNode
p1990
(dp1991
g2
(lp1992
I-1
aI-1
aI-1
aI-1
aI-1
asg37
g48
sbasg37
I235
sba(i__main__
TreeNode
p1993
(dp1994
g2
(lp1995
I-1
aI-1
aI-1
aI-1
aI-1
asg37
g38
sba(i__main__
TreeNode
p1996
(dp1997
g2
(lp1998
I-1
aI-1
aI-1
aI-1
aI-1
asg37
g38
sbasg37
I238
sba(i__main__
TreeNode
p1999
(dp2000
g2
(lp2001
(i__main__
TreeNode
p2002
(dp2003
g2
(lp2004
(i__main__
TreeNode
p2005
(dp2006
g2
(lp2007
I-1
aI-1
aI-1
aI-1
aI-1
asg37
g48
sba(i__main__
TreeNode
p2008
(dp2009
g2
(lp2010
(i__main__
TreeNode
p2011
(dp2012
g2
(lp2013
I-1
aI-1
aI-1
aI-1
aI-1
asg37
g38
sba(i__main__
TreeNode
p2014
(dp2015
g2
(lp2016
I-1
aI-1
aI-1
aI-1
aI-1
asg37
g38
sba(i__main__
TreeNode
p2017
(dp2018
g2
(lp2019
I-1
aI-1
aI-1
aI-1
aI-1
asg37
g38
sba(i__main__
TreeNode
p2020
(dp2021
g2
(lp2022
I-1
aI-1
aI-1
aI-1
aI-1
asg37
g48
sba(i__main__
TreeNode
p2023
(dp2024
g2
(lp2025
I-1
aI-1
aI-1
aI-1
aI-1
asg37
g38
sbasg37
I179
sba(i__main__
TreeNode
p2026
(dp2027
g2
(lp2028
I-1
aI-1
aI-1
aI-1
aI-1
asg37
g48
sba(i__main__
TreeNode
p2029
(dp2030
g2
(lp2031
I-1
aI-1
aI-1
aI-1
aI-1
asg37
g48
sba(i__main__
TreeNode
p2032
(dp2033
g2
(lp2034
I-1
aI-1
aI-1
aI-1
aI-1
asg37
g48
sbasg37
I153
sba(i__main__
TreeNode
p2035
(dp2036
g2
(lp2037
I-1
aI-1
aI-1
aI-1
aI-1
asg37
g38
sba(i__main__
TreeNode
p2038
(dp2039
g2
(lp2040
I-1
aI-1
aI-1
aI-1
aI-1
asg37
g38
sba(i__main__
TreeNode
p2041
(dp2042
g2
(lp2043
I-1
aI-1
aI-1
aI-1
aI-1
asg37
g38
sba(i__main__
TreeNode
p2044
(dp2045
g2
(lp2046
I-1
aI-1
aI-1
aI-1
aI-1
asg37
g38
sbasg37
I212
sba(i__main__
TreeNode
p2047
(dp2048
g2
(lp2049
I-1
aI-1
aI-1
aI-1
aI-1
asg37
g38
sba(i__main__
TreeNode
p2050
(dp2051
g2
(lp2052
(i__main__
TreeNode
p2053
(dp2054
g2
(lp2055
(i__main__
TreeNode
p2056
(dp2057
g2
(lp2058
I-1
aI-1
aI-1
aI-1
aI-1
asg37
g38
sba(i__main__
TreeNode
p2059
(dp2060
g2
(lp2061
I-1
aI-1
aI-1
aI-1
aI-1
asg37
g38
sba(i__main__
TreeNode
p2062
(dp2063
g2
(lp2064
I-1
aI-1
aI-1
aI-1
aI-1
asg37
g38
sba(i__main__
TreeNode
p2065
(dp2066
g2
(lp2067
I-1
aI-1
aI-1
aI-1
aI-1
asg37
g38
sba(i__main__
TreeNode
p2068
(dp2069
g2
(lp2070
I-1
aI-1
aI-1
aI-1
aI-1
asg37
g38
sbasg37
I242
sba(i__main__
TreeNode
p2071
(dp2072
g2
(lp2073
I-1
aI-1
aI-1
aI-1
aI-1
asg37
g38
sba(i__main__
TreeNode
p2074
(dp2075
g2
(lp2076
I-1
aI-1
aI-1
aI-1
aI-1
asg37
g48
sba(i__main__
TreeNode
p2077
(dp2078
g2
(lp2079
I-1
aI-1
aI-1
aI-1
aI-1
asg37
g38
sba(i__main__
TreeNode
p2080
(dp2081
g2
(lp2082
I-1
aI-1
aI-1
aI-1
aI-1
asg37
g38
sbasg37
I200
sba(i__main__
TreeNode
p2083
(dp2084
g2
(lp2085
(i__main__
TreeNode
p2086
(dp2087
g2
(lp2088
(i__main__
TreeNode
p2089
(dp2090
g2
(lp2091
I-1
aI-1
aI-1
aI-1
aI-1
asg37
g48
sba(i__main__
TreeNode
p2092
(dp2093
g2
(lp2094
I-1
aI-1
aI-1
aI-1
aI-1
asg37
g48
sba(i__main__
TreeNode
p2095
(dp2096
g2
(lp2097
I-1
aI-1
aI-1
aI-1
aI-1
asg37
g48
sba(i__main__
TreeNode
p2098
(dp2099
g2
(lp2100
I-1
aI-1
aI-1
aI-1
aI-1
asg37
g48
sba(i__main__
TreeNode
p2101
(dp2102
g2
(lp2103
I-1
aI-1
aI-1
aI-1
aI-1
asg37
g48
sbasg37
I111
sba(i__main__
TreeNode
p2104
(dp2105
g2
(lp2106
I-1
aI-1
aI-1
aI-1
aI-1
asg37
g48
sba(i__main__
TreeNode
p2107
(dp2108
g2
(lp2109
I-1
aI-1
aI-1
aI-1
aI-1
asg37
g38
sba(i__main__
TreeNode
p2110
(dp2111
g2
(lp2112
I-1
aI-1
aI-1
aI-1
aI-1
asg37
g48
sba(i__main__
TreeNode
p2113
(dp2114
g2
(lp2115
I-1
aI-1
aI-1
aI-1
aI-1
asg37
g48
sbasg37
I216
sbasg37
I229
sba(i__main__
TreeNode
p2116
(dp2117
g2
(lp2118
(i__main__
TreeNode
p2119
(dp2120
g2
(lp2121
I-1
aI-1
aI-1
aI-1
aI-1
asg37
g38
sba(i__main__
TreeNode
p2122
(dp2123
g2
(lp2124
I-1
aI-1
aI-1
aI-1
aI-1
asg37
g38
sba(i__main__
TreeNode
p2125
(dp2126
g2
(lp2127
I-1
aI-1
aI-1
aI-1
aI-1
asg37
g38
sba(i__main__
TreeNode
p2128
(dp2129
g2
(lp2130
I-1
aI-1
aI-1
aI-1
aI-1
asg37
g38
sba(i__main__
TreeNode
p2131
(dp2132
g2
(lp2133
I-1
aI-1
aI-1
aI-1
aI-1
asg37
g38
sbasg37
I99
sba(i__main__
TreeNode
p2134
(dp2135
g2
(lp2136
I-1
aI-1
aI-1
aI-1
aI-1
asg37
g38
sba(i__main__
TreeNode
p2137
(dp2138
g2
(lp2139
I-1
aI-1
aI-1
aI-1
aI-1
asg37
g38
sba(i__main__
TreeNode
p2140
(dp2141
g2
(lp2142
I-1
aI-1
aI-1
aI-1
aI-1
asg37
g38
sbasg37
I219
sba(i__main__
TreeNode
p2143
(dp2144
g2
(lp2145
I-1
aI-1
aI-1
aI-1
aI-1
asg37
g38
sba(i__main__
TreeNode
p2146
(dp2147
g2
(lp2148
I-1
aI-1
aI-1
aI-1
aI-1
asg37
g48
sba(i__main__
TreeNode
p2149
(dp2150
g2
(lp2151
(i__main__
TreeNode
p2152
(dp2153
g2
(lp2154
I-1
aI-1
aI-1
aI-1
aI-1
asg37
g38
sba(i__main__
TreeNode
p2155
(dp2156
g2
(lp2157
I-1
aI-1
aI-1
aI-1
aI-1
asg37
g38
sba(i__main__
TreeNode
p2158
(dp2159
g2
(lp2160
I-1
aI-1
aI-1
aI-1
aI-1
asg37
g48
sba(i__main__
TreeNode
p2161
(dp2162
g2
(lp2163
I-1
aI-1
aI-1
aI-1
aI-1
asg37
g38
sba(i__main__
TreeNode
p2164
(dp2165
g2
(lp2166
I-1
aI-1
aI-1
aI-1
aI-1
asg37
g38
sbasg37
I115
sbasg37
I215
sba(i__main__
TreeNode
p2167
(dp2168
g2
(lp2169
I-1
aI-1
aI-1
aI-1
aI-1
asg37
g48
sba(i__main__
TreeNode
p2170
(dp2171
g2
(lp2172
I-1
aI-1
aI-1
aI-1
aI-1
asg37
g48
sba(i__main__
TreeNode
p2173
(dp2174
g2
(lp2175
(i__main__
TreeNode
p2176
(dp2177
g2
(lp2178
I-1
aI-1
aI-1
aI-1
aI-1
asg37
g38
sba(i__main__
TreeNode
p2179
(dp2180
g2
(lp2181
I-1
aI-1
aI-1
aI-1
aI-1
asg37
g38
sba(i__main__
TreeNode
p2182
(dp2183
g2
(lp2184
I-1
aI-1
aI-1
aI-1
aI-1
asg37
g38
sba(i__main__
TreeNode
p2185
(dp2186
g2
(lp2187
I-1
aI-1
aI-1
aI-1
aI-1
asg37
g38
sba(i__main__
TreeNode
p2188
(dp2189
g2
(lp2190
I-1
aI-1
aI-1
aI-1
aI-1
asg37
g38
sbasg37
I192
sbasg37
I240
sba(i__main__
TreeNode
p2191
(dp2192
g2
(lp2193
I-1
aI-1
aI-1
aI-1
aI-1
asg37
g38
sba(i__main__
TreeNode
p2194
(dp2195
g2
(lp2196
I-1
aI-1
aI-1
aI-1
aI-1
asg37
g38
sba(i__main__
TreeNode
p2197
(dp2198
g2
(lp2199
(i__main__
TreeNode
p2200
(dp2201
g2
(lp2202
I-1
aI-1
aI-1
aI-1
aI-1
asg37
g38
sba(i__main__
TreeNode
p2203
(dp2204
g2
(lp2205
I-1
aI-1
aI-1
aI-1
aI-1
asg37
g38
sba(i__main__
TreeNode
p2206
(dp2207
g2
(lp2208
I-1
aI-1
aI-1
aI-1
aI-1
asg37
g48
sba(i__main__
TreeNode
p2209
(dp2210
g2
(lp2211
I-1
aI-1
aI-1
aI-1
aI-1
asg37
g38
sba(i__main__
TreeNode
p2212
(dp2213
g2
(lp2214
I-1
aI-1
aI-1
aI-1
aI-1
asg37
g38
sbasg37
I190
sba(i__main__
TreeNode
p2215
(dp2216
g2
(lp2217
I-1
aI-1
aI-1
aI-1
aI-1
asg37
g48
sbasg37
I199
sba(i__main__
TreeNode
p2218
(dp2219
g2
(lp2220
I-1
aI-1
aI-1
aI-1
aI-1
asg37
g38
sba(i__main__
TreeNode
p2221
(dp2222
g2
(lp2223
I-1
aI-1
aI-1
aI-1
aI-1
asg37
g48
sba(i__main__
TreeNode
p2224
(dp2225
g2
(lp2226
I-1
aI-1
aI-1
aI-1
aI-1
asg37
g38
sba(i__main__
TreeNode
p2227
(dp2228
g2
(lp2229
I-1
aI-1
aI-1
aI-1
aI-1
asg37
g38
sbasg37
I232
sba(i__main__
TreeNode
p2230
(dp2231
g2
(lp2232
I-1
aI-1
aI-1
aI-1
aI-1
asg37
g38
sba(i__main__
TreeNode
p2233
(dp2234
g2
(lp2235
I-1
aI-1
aI-1
aI-1
aI-1
asg37
g48
sba(i__main__
TreeNode
p2236
(dp2237
g2
(lp2238
I-1
aI-1
aI-1
aI-1
aI-1
asg37
g38
sba(i__main__
TreeNode
p2239
(dp2240
g2
(lp2241
I-1
aI-1
aI-1
aI-1
aI-1
asg37
g48
sbasg37
I98
sba(i__main__
TreeNode
p2242
(dp2243
g2
(lp2244
I-1
aI-1
aI-1
aI-1
aI-1
asg37
g38
sba(i__main__
TreeNode
p2245
(dp2246
g2
(lp2247
I-1
aI-1
aI-1
aI-1
aI-1
asg37
g38
sba(i__main__
TreeNode
p2248
(dp2249
g2
(lp2250
I-1
aI-1
aI-1
aI-1
aI-1
asg37
g48
sba(i__main__
TreeNode
p2251
(dp2252
g2
(lp2253
I-1
aI-1
aI-1
aI-1
aI-1
asg37
g48
sbasg37
I226
sba(i__main__
TreeNode
p2254
(dp2255
g2
(lp2256
(i__main__
TreeNode
p2257
(dp2258
g2
(lp2259
(i__main__
TreeNode
p2260
(dp2261
g2
(lp2262
I-1
aI-1
aI-1
aI-1
aI-1
asg37
g48
sba(i__main__
TreeNode
p2263
(dp2264
g2
(lp2265
I-1
aI-1
aI-1
aI-1
aI-1
asg37
g48
sba(i__main__
TreeNode
p2266
(dp2267
g2
(lp2268
I-1
aI-1
aI-1
aI-1
aI-1
asg37
g38
sba(i__main__
TreeNode
p2269
(dp2270
g2
(lp2271
I-1
aI-1
aI-1
aI-1
aI-1
asg37
g48
sba(i__main__
TreeNode
p2272
(dp2273
g2
(lp2274
I-1
aI-1
aI-1
aI-1
aI-1
asg37
g48
sbasg37
I220
sba(i__main__
TreeNode
p2275
(dp2276
g2
(lp2277
I-1
aI-1
aI-1
aI-1
aI-1
asg37
g38
sba(i__main__
TreeNode
p2278
(dp2279
g2
(lp2280
I-1
aI-1
aI-1
aI-1
aI-1
asg37
g38
sba(i__main__
TreeNode
p2281
(dp2282
g2
(lp2283
I-1
aI-1
aI-1
aI-1
aI-1
asg37
g48
sba(i__main__
TreeNode
p2284
(dp2285
g2
(lp2286
I-1
aI-1
aI-1
aI-1
aI-1
asg37
g38
sbasg37
I224
sba(i__main__
TreeNode
p2287
(dp2288
g2
(lp2289
(i__main__
TreeNode
p2290
(dp2291
g2
(lp2292
I-1
aI-1
aI-1
aI-1
aI-1
asg37
g48
sba(i__main__
TreeNode
p2293
(dp2294
g2
(lp2295
I-1
aI-1
aI-1
aI-1
aI-1
asg37
g38
sba(i__main__
TreeNode
p2296
(dp2297
g2
(lp2298
I-1
aI-1
aI-1
aI-1
aI-1
asg37
g48
sba(i__main__
TreeNode
p2299
(dp2300
g2
(lp2301
I-1
aI-1
aI-1
aI-1
aI-1
asg37
g48
sba(i__main__
TreeNode
p2302
(dp2303
g2
(lp2304
I-1
aI-1
aI-1
aI-1
aI-1
asg37
g48
sbasg37
I207
sba(i__main__
TreeNode
p2305
(dp2306
g2
(lp2307
(i__main__
TreeNode
p2308
(dp2309
g2
(lp2310
(i__main__
TreeNode
p2311
(dp2312
g2
(lp2313
(i__main__
TreeNode
p2314
(dp2315
g2
(lp2316
I-1
aI-1
aI-1
aI-1
aI-1
asg37
g38
sba(i__main__
TreeNode
p2317
(dp2318
g2
(lp2319
I-1
aI-1
aI-1
aI-1
aI-1
asg37
g38
sba(i__main__
TreeNode
p2320
(dp2321
g2
(lp2322
I-1
aI-1
aI-1
aI-1
aI-1
asg37
g38
sba(i__main__
TreeNode
p2323
(dp2324
g2
(lp2325
(i__main__
TreeNode
p2326
(dp2327
g2
(lp2328
(i__main__
TreeNode
p2329
(dp2330
g2
(lp2331
I-1
aI-1
aI-1
aI-1
aI-1
asg37
g48
sba(i__main__
TreeNode
p2332
(dp2333
g2
(lp2334
I-1
aI-1
aI-1
aI-1
aI-1
asg37
g38
sba(i__main__
TreeNode
p2335
(dp2336
g2
(lp2337
I-1
aI-1
aI-1
aI-1
aI-1
asg37
g38
sba(i__main__
TreeNode
p2338
(dp2339
g2
(lp2340
I-1
aI-1
aI-1
aI-1
aI-1
asg37
g38
sba(i__main__
TreeNode
p2341
(dp2342
g2
(lp2343
I-1
aI-1
aI-1
aI-1
aI-1
asg37
g38
sbasg37
I113
sba(i__main__
TreeNode
p2344
(dp2345
g2
(lp2346
I-1
aI-1
aI-1
aI-1
aI-1
asg37
g38
sba(i__main__
TreeNode
p2347
(dp2348
g2
(lp2349
I-1
aI-1
aI-1
aI-1
aI-1
asg37
g38
sba(i__main__
TreeNode
p2350
(dp2351
g2
(lp2352
I-1
aI-1
aI-1
aI-1
aI-1
asg37
g38
sba(i__main__
TreeNode
p2353
(dp2354
g2
(lp2355
I-1
aI-1
aI-1
aI-1
aI-1
asg37
g38
sbasg37
I237
sba(i__main__
TreeNode
p2356
(dp2357
g2
(lp2358
I-1
aI-1
aI-1
aI-1
aI-1
asg37
g38
sbasg37
I241
sba(i__main__
TreeNode
p2359
(dp2360
g2
(lp2361
I-1
aI-1
aI-1
aI-1
aI-1
asg37
g38
sba(i__main__
TreeNode
p2362
(dp2363
g2
(lp2364
I-1
aI-1
aI-1
aI-1
aI-1
asg37
g38
sba(i__main__
TreeNode
p2365
(dp2366
g2
(lp2367
I-1
aI-1
aI-1
aI-1
aI-1
asg37
g38
sba(i__main__
TreeNode
p2368
(dp2369
g2
(lp2370
I-1
aI-1
aI-1
aI-1
aI-1
asg37
g38
sbasg37
I108
sba(i__main__
TreeNode
p2371
(dp2372
g2
(lp2373
(i__main__
TreeNode
p2374
(dp2375
g2
(lp2376
I-1
aI-1
aI-1
aI-1
aI-1
asg37
g38
sba(i__main__
TreeNode
p2377
(dp2378
g2
(lp2379
I-1
aI-1
aI-1
aI-1
aI-1
asg37
g48
sba(i__main__
TreeNode
p2380
(dp2381
g2
(lp2382
I-1
aI-1
aI-1
aI-1
aI-1
asg37
g38
sba(i__main__
TreeNode
p2383
(dp2384
g2
(lp2385
I-1
aI-1
aI-1
aI-1
aI-1
asg37
g38
sba(i__main__
TreeNode
p2386
(dp2387
g2
(lp2388
I-1
aI-1
aI-1
aI-1
aI-1
asg37
g38
sbasg37
I119
sba(i__main__
TreeNode
p2389
(dp2390
g2
(lp2391
I-1
aI-1
aI-1
aI-1
aI-1
asg37
g38
sba(i__main__
TreeNode
p2392
(dp2393
g2
(lp2394
I-1
aI-1
aI-1
aI-1
aI-1
asg37
g48
sba(i__main__
TreeNode
p2395
(dp2396
g2
(lp2397
I-1
aI-1
aI-1
aI-1
aI-1
asg37
g38
sbasg37
I114
sba(i__main__
TreeNode
p2398
(dp2399
g2
(lp2400
I-1
aI-1
aI-1
aI-1
aI-1
asg37
g38
sbasg37
I93
sba(i__main__
TreeNode
p2401
(dp2402
g2
(lp2403
(i__main__
TreeNode
p2404
(dp2405
g2
(lp2406
(i__main__
TreeNode
p2407
(dp2408
g2
(lp2409
I-1
aI-1
aI-1
aI-1
aI-1
asg37
g38
sba(i__main__
TreeNode
p2410
(dp2411
g2
(lp2412
I-1
aI-1
aI-1
aI-1
aI-1
asg37
g38
sba(i__main__
TreeNode
p2413
(dp2414
g2
(lp2415
I-1
aI-1
aI-1
aI-1
aI-1
asg37
g38
sba(i__main__
TreeNode
p2416
(dp2417
g2
(lp2418
I-1
aI-1
aI-1
aI-1
aI-1
asg37
g38
sba(i__main__
TreeNode
p2419
(dp2420
g2
(lp2421
I-1
aI-1
aI-1
aI-1
aI-1
asg37
g38
sbasg37
I133
sba(i__main__
TreeNode
p2422
(dp2423
g2
(lp2424
I-1
aI-1
aI-1
aI-1
aI-1
asg37
g38
sba(i__main__
TreeNode
p2425
(dp2426
g2
(lp2427
I-1
aI-1
aI-1
aI-1
aI-1
asg37
g38
sba(i__main__
TreeNode
p2428
(dp2429
g2
(lp2430
I-1
aI-1
aI-1
aI-1
aI-1
asg37
g38
sba(i__main__
TreeNode
p2431
(dp2432
g2
(lp2433
I-1
aI-1
aI-1
aI-1
aI-1
asg37
g38
sbasg37
I203
sba(i__main__
TreeNode
p2434
(dp2435
g2
(lp2436
(i__main__
TreeNode
p2437
(dp2438
g2
(lp2439
I-1
aI-1
aI-1
aI-1
aI-1
asg37
g38
sba(i__main__
TreeNode
p2440
(dp2441
g2
(lp2442
I-1
aI-1
aI-1
aI-1
aI-1
asg37
g38
sba(i__main__
TreeNode
p2443
(dp2444
g2
(lp2445
I-1
aI-1
aI-1
aI-1
aI-1
asg37
g38
sba(i__main__
TreeNode
p2446
(dp2447
g2
(lp2448
I-1
aI-1
aI-1
aI-1
aI-1
asg37
g38
sba(i__main__
TreeNode
p2449
(dp2450
g2
(lp2451
I-1
aI-1
aI-1
aI-1
aI-1
asg37
g38
sbasg37
I148
sba(i__main__
TreeNode
p2452
(dp2453
g2
(lp2454
I-1
aI-1
aI-1
aI-1
aI-1
asg37
g48
sba(i__main__
TreeNode
p2455
(dp2456
g2
(lp2457
I-1
aI-1
aI-1
aI-1
aI-1
asg37
g38
sbasg37
I227
sba(i__main__
TreeNode
p2458
(dp2459
g2
(lp2460
I-1
aI-1
aI-1
aI-1
aI-1
asg37
g48
sba(i__main__
TreeNode
p2461
(dp2462
g2
(lp2463
I-1
aI-1
aI-1
aI-1
aI-1
asg37
g38
sba(i__main__
TreeNode
p2464
(dp2465
g2
(lp2466
I-1
aI-1
aI-1
aI-1
aI-1
asg37
g38
sba(i__main__
TreeNode
p2467
(dp2468
g2
(lp2469
(i__main__
TreeNode
p2470
(dp2471
g2
(lp2472
I-1
aI-1
aI-1
aI-1
aI-1
asg37
g38
sba(i__main__
TreeNode
p2473
(dp2474
g2
(lp2475
I-1
aI-1
aI-1
aI-1
aI-1
asg37
g48
sba(i__main__
TreeNode
p2476
(dp2477
g2
(lp2478
I-1
aI-1
aI-1
aI-1
aI-1
asg37
g38
sba(i__main__
TreeNode
p2479
(dp2480
g2
(lp2481
I-1
aI-1
aI-1
aI-1
aI-1
asg37
g38
sba(i__main__
TreeNode
p2482
(dp2483
g2
(lp2484
I-1
aI-1
aI-1
aI-1
aI-1
asg37
g38
sbasg37
I19
sbasg37
I84
sba(i__main__
TreeNode
p2485
(dp2486
g2
(lp2487
(i__main__
TreeNode
p2488
(dp2489
g2
(lp2490
(i__main__
TreeNode
p2491
(dp2492
g2
(lp2493
I-1
aI-1
aI-1
aI-1
aI-1
asg37
g38
sba(i__main__
TreeNode
p2494
(dp2495
g2
(lp2496
I-1
aI-1
aI-1
aI-1
aI-1
asg37
g38
sba(i__main__
TreeNode
p2497
(dp2498
g2
(lp2499
I-1
aI-1
aI-1
aI-1
aI-1
asg37
g38
sba(i__main__
TreeNode
p2500
(dp2501
g2
(lp2502
I-1
aI-1
aI-1
aI-1
aI-1
asg37
g38
sba(i__main__
TreeNode
p2503
(dp2504
g2
(lp2505
I-1
aI-1
aI-1
aI-1
aI-1
asg37
g38
sbasg37
I191
sba(i__main__
TreeNode
p2506
(dp2507
g2
(lp2508
I-1
aI-1
aI-1
aI-1
aI-1
asg37
g48
sba(i__main__
TreeNode
p2509
(dp2510
g2
(lp2511
I-1
aI-1
aI-1
aI-1
aI-1
asg37
g38
sba(i__main__
TreeNode
p2512
(dp2513
g2
(lp2514
I-1
aI-1
aI-1
aI-1
aI-1
asg37
g38
sba(i__main__
TreeNode
p2515
(dp2516
g2
(lp2517
I-1
aI-1
aI-1
aI-1
aI-1
asg37
g38
sbasg37
I189
sba(i__main__
TreeNode
p2518
(dp2519
g2
(lp2520
I-1
aI-1
aI-1
aI-1
aI-1
asg37
g38
sba(i__main__
TreeNode
p2521
(dp2522
g2
(lp2523
(i__main__
TreeNode
p2524
(dp2525
g2
(lp2526
(i__main__
TreeNode
p2527
(dp2528
g2
(lp2529
I-1
aI-1
aI-1
aI-1
aI-1
asg37
g48
sba(i__main__
TreeNode
p2530
(dp2531
g2
(lp2532
I-1
aI-1
aI-1
aI-1
aI-1
asg37
g48
sba(i__main__
TreeNode
p2533
(dp2534
g2
(lp2535
I-1
aI-1
aI-1
aI-1
aI-1
asg37
g48
sba(i__main__
TreeNode
p2536
(dp2537
g2
(lp2538
I-1
aI-1
aI-1
aI-1
aI-1
asg37
g48
sba(i__main__
TreeNode
p2539
(dp2540
g2
(lp2541
I-1
aI-1
aI-1
aI-1
aI-1
asg37
g48
sbasg37
I107
sba(i__main__
TreeNode
p2542
(dp2543
g2
(lp2544
I-1
aI-1
aI-1
aI-1
aI-1
asg37
g38
sba(i__main__
TreeNode
p2545
(dp2546
g2
(lp2547
I-1
aI-1
aI-1
aI-1
aI-1
asg37
g48
sba(i__main__
TreeNode
p2548
(dp2549
g2
(lp2550
I-1
aI-1
aI-1
aI-1
aI-1
asg37
g48
sba(i__main__
TreeNode
p2551
(dp2552
g2
(lp2553
I-1
aI-1
aI-1
aI-1
aI-1
asg37
g48
sbasg37
I112
sba(i__main__
TreeNode
p2554
(dp2555
g2
(lp2556
(i__main__
TreeNode
p2557
(dp2558
g2
(lp2559
I-1
aI-1
aI-1
aI-1
aI-1
asg37
g38
sba(i__main__
TreeNode
p2560
(dp2561
g2
(lp2562
I-1
aI-1
aI-1
aI-1
aI-1
asg37
g48
sba(i__main__
TreeNode
p2563
(dp2564
g2
(lp2565
I-1
aI-1
aI-1
aI-1
aI-1
asg37
g38
sba(i__main__
TreeNode
p2566
(dp2567
g2
(lp2568
I-1
aI-1
aI-1
aI-1
aI-1
asg37
g38
sba(i__main__
TreeNode
p2569
(dp2570
g2
(lp2571
I-1
aI-1
aI-1
aI-1
aI-1
asg37
g38
sbasg37
I117
sbasg37
I100
sba(i__main__
TreeNode
p2572
(dp2573
g2
(lp2574
(i__main__
TreeNode
p2575
(dp2576
g2
(lp2577
(i__main__
TreeNode
p2578
(dp2579
g2
(lp2580
I-1
aI-1
aI-1
aI-1
aI-1
asg37
g48
sba(i__main__
TreeNode
p2581
(dp2582
g2
(lp2583
(i__main__
TreeNode
p2584
(dp2585
g2
(lp2586
(i__main__
TreeNode
p2587
(dp2588
g2
(lp2589
I-1
aI-1
aI-1
aI-1
aI-1
asg37
g38
sba(i__main__
TreeNode
p2590
(dp2591
g2
(lp2592
I-1
aI-1
aI-1
aI-1
aI-1
asg37
g38
sba(i__main__
TreeNode
p2593
(dp2594
g2
(lp2595
(i__main__
TreeNode
p2596
(dp2597
g2
(lp2598
I-1
aI-1
aI-1
aI-1
aI-1
asg37
g38
sba(i__main__
TreeNode
p2599
(dp2600
g2
(lp2601
I-1
aI-1
aI-1
aI-1
aI-1
asg37
g48
sba(i__main__
TreeNode
p2602
(dp2603
g2
(lp2604
I-1
aI-1
aI-1
aI-1
aI-1
asg37
g38
sba(i__main__
TreeNode
p2605
(dp2606
g2
(lp2607
I-1
aI-1
aI-1
aI-1
aI-1
asg37
g38
sba(i__main__
TreeNode
p2608
(dp2609
g2
(lp2610
I-1
aI-1
aI-1
aI-1
aI-1
asg37
g38
sbasg37
I193
sba(i__main__
TreeNode
p2611
(dp2612
g2
(lp2613
I-1
aI-1
aI-1
aI-1
aI-1
asg37
g38
sba(i__main__
TreeNode
p2614
(dp2615
g2
(lp2616
I-1
aI-1
aI-1
aI-1
aI-1
asg37
g38
sbasg37
I251
sba(i__main__
TreeNode
p2617
(dp2618
g2
(lp2619
I-1
aI-1
aI-1
aI-1
aI-1
asg37
g48
sba(i__main__
TreeNode
p2620
(dp2621
g2
(lp2622
I-1
aI-1
aI-1
aI-1
aI-1
asg37
g38
sba(i__main__
TreeNode
p2623
(dp2624
g2
(lp2625
I-1
aI-1
aI-1
aI-1
aI-1
asg37
g38
sba(i__main__
TreeNode
p2626
(dp2627
g2
(lp2628
I-1
aI-1
aI-1
aI-1
aI-1
asg37
g38
sbasg37
I109
sba(i__main__
TreeNode
p2629
(dp2630
g2
(lp2631
I-1
aI-1
aI-1
aI-1
aI-1
asg37
g38
sba(i__main__
TreeNode
p2632
(dp2633
g2
(lp2634
I-1
aI-1
aI-1
aI-1
aI-1
asg37
g38
sba(i__main__
TreeNode
p2635
(dp2636
g2
(lp2637
(i__main__
TreeNode
p2638
(dp2639
g2
(lp2640
(i__main__
TreeNode
p2641
(dp2642
g2
(lp2643
I-1
aI-1
aI-1
aI-1
aI-1
asg37
g38
sba(i__main__
TreeNode
p2644
(dp2645
g2
(lp2646
I-1
aI-1
aI-1
aI-1
aI-1
asg37
g38
sba(i__main__
TreeNode
p2647
(dp2648
g2
(lp2649
I-1
aI-1
aI-1
aI-1
aI-1
asg37
g38
sba(i__main__
TreeNode
p2650
(dp2651
g2
(lp2652
I-1
aI-1
aI-1
aI-1
aI-1
asg37
g38
sba(i__main__
TreeNode
p2653
(dp2654
g2
(lp2655
I-1
aI-1
aI-1
aI-1
aI-1
asg37
g38
sbasg37
I252
sba(i__main__
TreeNode
p2656
(dp2657
g2
(lp2658
I-1
aI-1
aI-1
aI-1
aI-1
asg37
g38
sba(i__main__
TreeNode
p2659
(dp2660
g2
(lp2661
I-1
aI-1
aI-1
aI-1
aI-1
asg37
g38
sba(i__main__
TreeNode
p2662
(dp2663
g2
(lp2664
I-1
aI-1
aI-1
aI-1
aI-1
asg37
g38
sba(i__main__
TreeNode
p2665
(dp2666
g2
(lp2667
I-1
aI-1
aI-1
aI-1
aI-1
asg37
g38
sbasg37
I206
sbasg37
I154
sba(i__main__
TreeNode
p2668
(dp2669
g2
(lp2670
(i__main__
TreeNode
p2671
(dp2672
g2
(lp2673
(i__main__
TreeNode
p2674
(dp2675
g2
(lp2676
(i__main__
TreeNode
p2677
(dp2678
g2
(lp2679
(i__main__
TreeNode
p2680
(dp2681
g2
(lp2682
I-1
aI-1
aI-1
aI-1
aI-1
asg37
g38
sba(i__main__
TreeNode
p2683
(dp2684
g2
(lp2685
(i__main__
TreeNode
p2686
(dp2687
g2
(lp2688
I-1
aI-1
aI-1
aI-1
aI-1
asg37
g38
sba(i__main__
TreeNode
p2689
(dp2690
g2
(lp2691
I-1
aI-1
aI-1
aI-1
aI-1
asg37
g38
sba(i__main__
TreeNode
p2692
(dp2693
g2
(lp2694
I-1
aI-1
aI-1
aI-1
aI-1
asg37
g38
sba(i__main__
TreeNode
p2695
(dp2696
g2
(lp2697
I-1
aI-1
aI-1
aI-1
aI-1
asg37
g38
sba(i__main__
TreeNode
p2698
(dp2699
g2
(lp2700
I-1
aI-1
aI-1
aI-1
aI-1
asg37
g38
sbasg37
I244
sba(i__main__
TreeNode
p2701
(dp2702
g2
(lp2703
I-1
aI-1
aI-1
aI-1
aI-1
asg37
g38
sba(i__main__
TreeNode
p2704
(dp2705
g2
(lp2706
I-1
aI-1
aI-1
aI-1
aI-1
asg37
g38
sba(i__main__
TreeNode
p2707
(dp2708
g2
(lp2709
I-1
aI-1
aI-1
aI-1
aI-1
asg37
g38
sbasg37
I250
sba(i__main__
TreeNode
p2710
(dp2711
g2
(lp2712
I-1
aI-1
aI-1
aI-1
aI-1
asg37
g38
sba(i__main__
TreeNode
p2713
(dp2714
g2
(lp2715
I-1
aI-1
aI-1
aI-1
aI-1
asg37
g38
sba(i__main__
TreeNode
p2716
(dp2717
g2
(lp2718
I-1
aI-1
aI-1
aI-1
aI-1
asg37
g38
sba(i__main__
TreeNode
p2719
(dp2720
g2
(lp2721
I-1
aI-1
aI-1
aI-1
aI-1
asg37
g38
sbasg37
I105
sba(i__main__
TreeNode
p2722
(dp2723
g2
(lp2724
(i__main__
TreeNode
p2725
(dp2726
g2
(lp2727
I-1
aI-1
aI-1
aI-1
aI-1
asg37
g38
sba(i__main__
TreeNode
p2728
(dp2729
g2
(lp2730
I-1
aI-1
aI-1
aI-1
aI-1
asg37
g38
sba(i__main__
TreeNode
p2731
(dp2732
g2
(lp2733
I-1
aI-1
aI-1
aI-1
aI-1
asg37
g38
sba(i__main__
TreeNode
p2734
(dp2735
g2
(lp2736
I-1
aI-1
aI-1
aI-1
aI-1
asg37
g38
sba(i__main__
TreeNode
p2737
(dp2738
g2
(lp2739
I-1
aI-1
aI-1
aI-1
aI-1
asg37
g38
sbasg37
I163
sba(i__main__
TreeNode
p2740
(dp2741
g2
(lp2742
I-1
aI-1
aI-1
aI-1
aI-1
asg37
g38
sba(i__main__
TreeNode
p2743
(dp2744
g2
(lp2745
I-1
aI-1
aI-1
aI-1
aI-1
asg37
g38
sba(i__main__
TreeNode
p2746
(dp2747
g2
(lp2748
I-1
aI-1
aI-1
aI-1
aI-1
asg37
g38
sbasg37
I255
sba(i__main__
TreeNode
p2749
(dp2750
g2
(lp2751
I-1
aI-1
aI-1
aI-1
aI-1
asg37
g38
sba(i__main__
TreeNode
p2752
(dp2753
g2
(lp2754
I-1
aI-1
aI-1
aI-1
aI-1
asg37
g48
sba(i__main__
TreeNode
p2755
(dp2756
g2
(lp2757
I-1
aI-1
aI-1
aI-1
aI-1
asg37
g38
sba(i__main__
TreeNode
p2758
(dp2759
g2
(lp2760
I-1
aI-1
aI-1
aI-1
aI-1
asg37
g38
sbasg37
I4
sba(i__main__
TreeNode
p2761
(dp2762
g2
(lp2763
(i__main__
TreeNode
p2764
(dp2765
g2
(lp2766
(i__main__
TreeNode
p2767
(dp2768
g2
(lp2769
I-1
aI-1
aI-1
aI-1
aI-1
asg37
g38
sba(i__main__
TreeNode
p2770
(dp2771
g2
(lp2772
I-1
aI-1
aI-1
aI-1
aI-1
asg37
g38
sba(i__main__
TreeNode
p2773
(dp2774
g2
(lp2775
I-1
aI-1
aI-1
aI-1
aI-1
asg37
g38
sba(i__main__
TreeNode
p2776
(dp2777
g2
(lp2778
I-1
aI-1
aI-1
aI-1
aI-1
asg37
g38
sba(i__main__
TreeNode
p2779
(dp2780
g2
(lp2781
I-1
aI-1
aI-1
aI-1
aI-1
asg37
g38
sbasg37
I139
sba(i__main__
TreeNode
p2782
(dp2783
g2
(lp2784
(i__main__
TreeNode
p2785
(dp2786
g2
(lp2787
I-1
aI-1
aI-1
aI-1
aI-1
asg37
g38
sba(i__main__
TreeNode
p2788
(dp2789
g2
(lp2790
I-1
aI-1
aI-1
aI-1
aI-1
asg37
g38
sba(i__main__
TreeNode
p2791
(dp2792
g2
(lp2793
I-1
aI-1
aI-1
aI-1
aI-1
asg37
g38
sba(i__main__
TreeNode
p2794
(dp2795
g2
(lp2796
I-1
aI-1
aI-1
aI-1
aI-1
asg37
g38
sba(i__main__
TreeNode
p2797
(dp2798
g2
(lp2799
I-1
aI-1
aI-1
aI-1
aI-1
asg37
g38
sbasg37
I204
sba(i__main__
TreeNode
p2800
(dp2801
g2
(lp2802
(i__main__
TreeNode
p2803
(dp2804
g2
(lp2805
I-1
aI-1
aI-1
aI-1
aI-1
asg37
g48
sba(i__main__
TreeNode
p2806
(dp2807
g2
(lp2808
I-1
aI-1
aI-1
aI-1
aI-1
asg37
g48
sba(i__main__
TreeNode
p2809
(dp2810
g2
(lp2811
I-1
aI-1
aI-1
aI-1
aI-1
asg37
g48
sba(i__main__
TreeNode
p2812
(dp2813
g2
(lp2814
(i__main__
TreeNode
p2815
(dp2816
g2
(lp2817
I-1
aI-1
aI-1
aI-1
aI-1
asg37
g38
sba(i__main__
TreeNode
p2818
(dp2819
g2
(lp2820
I-1
aI-1
aI-1
aI-1
aI-1
asg37
g48
sba(i__main__
TreeNode
p2821
(dp2822
g2
(lp2823
I-1
aI-1
aI-1
aI-1
aI-1
asg37
g38
sba(i__main__
TreeNode
p2824
(dp2825
g2
(lp2826
I-1
aI-1
aI-1
aI-1
aI-1
asg37
g38
sba(i__main__
TreeNode
p2827
(dp2828
g2
(lp2829
I-1
aI-1
aI-1
aI-1
aI-1
asg37
g38
sbasg37
I211
sba(i__main__
TreeNode
p2830
(dp2831
g2
(lp2832
I-1
aI-1
aI-1
aI-1
aI-1
asg37
g48
sbasg37
I262
sba(i__main__
TreeNode
p2833
(dp2834
g2
(lp2835
I-1
aI-1
aI-1
aI-1
aI-1
asg37
g38
sba(i__main__
TreeNode
p2836
(dp2837
g2
(lp2838
I-1
aI-1
aI-1
aI-1
aI-1
asg37
g38
sbasg37
I260
sba(i__main__
TreeNode
p2839
(dp2840
g2
(lp2841
(i__main__
TreeNode
p2842
(dp2843
g2
(lp2844
I-1
aI-1
aI-1
aI-1
aI-1
asg37
g38
sba(i__main__
TreeNode
p2845
(dp2846
g2
(lp2847
I-1
aI-1
aI-1
aI-1
aI-1
asg37
g38
sba(i__main__
TreeNode
p2848
(dp2849
g2
(lp2850
I-1
aI-1
aI-1
aI-1
aI-1
asg37
g38
sba(i__main__
TreeNode
p2851
(dp2852
g2
(lp2853
I-1
aI-1
aI-1
aI-1
aI-1
asg37
g38
sba(i__main__
TreeNode
p2854
(dp2855
g2
(lp2856
I-1
aI-1
aI-1
aI-1
aI-1
asg37
g38
sbasg37
I234
sba(i__main__
TreeNode
p2857
(dp2858
g2
(lp2859
I-1
aI-1
aI-1
aI-1
aI-1
asg37
g38
sbasg37
I160
sba(i__main__
TreeNode
p2860
(dp2861
g2
(lp2862
I-1
aI-1
aI-1
aI-1
aI-1
asg37
g38
sba(i__main__
TreeNode
p2863
(dp2864
g2
(lp2865
I-1
aI-1
aI-1
aI-1
aI-1
asg37
g38
sba(i__main__
TreeNode
p2866
(dp2867
g2
(lp2868
I-1
aI-1
aI-1
aI-1
aI-1
asg37
g38
sbasg37
I258
sba(i__main__
TreeNode
p2869
(dp2870
g2
(lp2871
I-1
aI-1
aI-1
aI-1
aI-1
asg37
g38
sba(i__main__
TreeNode
p2872
(dp2873
g2
(lp2874
(i__main__
TreeNode
p2875
(dp2876
g2
(lp2877
I-1
aI-1
aI-1
aI-1
aI-1
asg37
g38
sba(i__main__
TreeNode
p2878
(dp2879
g2
(lp2880
I-1
aI-1
aI-1
aI-1
aI-1
asg37
g38
sba(i__main__
TreeNode
p2881
(dp2882
g2
(lp2883
(i__main__
TreeNode
p2884
(dp2885
g2
(lp2886
I-1
aI-1
aI-1
aI-1
aI-1
asg37
g38
sba(i__main__
TreeNode
p2887
(dp2888
g2
(lp2889
I-1
aI-1
aI-1
aI-1
aI-1
asg37
g38
sba(i__main__
TreeNode
p2890
(dp2891
g2
(lp2892
I-1
aI-1
aI-1
aI-1
aI-1
asg37
g38
sba(i__main__
TreeNode
p2893
(dp2894
g2
(lp2895
I-1
aI-1
aI-1
aI-1
aI-1
asg37
g38
sba(i__main__
TreeNode
p2896
(dp2897
g2
(lp2898
I-1
aI-1
aI-1
aI-1
aI-1
asg37
g38
sbasg37
I261
sba(i__main__
TreeNode
p2899
(dp2900
g2
(lp2901
I-1
aI-1
aI-1
aI-1
aI-1
asg37
g38
sba(i__main__
TreeNode
p2902
(dp2903
g2
(lp2904
(i__main__
TreeNode
p2905
(dp2906
g2
(lp2907
I-1
aI-1
aI-1
aI-1
aI-1
asg37
g38
sba(i__main__
TreeNode
p2908
(dp2909
g2
(lp2910
I-1
aI-1
aI-1
aI-1
aI-1
asg37
g38
sba(i__main__
TreeNode
p2911
(dp2912
g2
(lp2913
I-1
aI-1
aI-1
aI-1
aI-1
asg37
g38
sba(i__main__
TreeNode
p2914
(dp2915
g2
(lp2916
I-1
aI-1
aI-1
aI-1
aI-1
asg37
g38
sba(i__main__
TreeNode
p2917
(dp2918
g2
(lp2919
I-1
aI-1
aI-1
aI-1
aI-1
asg37
g38
sbasg37
I13
sbasg37
I11
sba(i__main__
TreeNode
p2920
(dp2921
g2
(lp2922
I-1
aI-1
aI-1
aI-1
aI-1
asg37
g38
sba(i__main__
TreeNode
p2923
(dp2924
g2
(lp2925
(i__main__
TreeNode
p2926
(dp2927
g2
(lp2928
I-1
aI-1
aI-1
aI-1
aI-1
asg37
g48
sba(i__main__
TreeNode
p2929
(dp2930
g2
(lp2931
I-1
aI-1
aI-1
aI-1
aI-1
asg37
g48
sba(i__main__
TreeNode
p2932
(dp2933
g2
(lp2934
I-1
aI-1
aI-1
aI-1
aI-1
asg37
g48
sba(i__main__
TreeNode
p2935
(dp2936
g2
(lp2937
I-1
aI-1
aI-1
aI-1
aI-1
asg37
g38
sba(i__main__
TreeNode
p2938
(dp2939
g2
(lp2940
I-1
aI-1
aI-1
aI-1
aI-1
asg37
g48
sbasg37
I9
sbasg37
I8
sba(i__main__
TreeNode
p2941
(dp2942
g2
(lp2943
I-1
aI-1
aI-1
aI-1
aI-1
asg37
g48
sba(i__main__
TreeNode
p2944
(dp2945
g2
(lp2946
I-1
aI-1
aI-1
aI-1
aI-1
asg37
g38
sba(i__main__
TreeNode
p2947
(dp2948
g2
(lp2949
I-1
aI-1
aI-1
aI-1
aI-1
asg37
g38
sba(i__main__
TreeNode
p2950
(dp2951
g2
(lp2952
I-1
aI-1
aI-1
aI-1
aI-1
asg37
g38
sbasg37
I194
sba(i__main__
TreeNode
p2953
(dp2954
g2
(lp2955
(i__main__
TreeNode
p2956
(dp2957
g2
(lp2958
(i__main__
TreeNode
p2959
(dp2960
g2
(lp2961
(i__main__
TreeNode
p2962
(dp2963
g2
(lp2964
(i__main__
TreeNode
p2965
(dp2966
g2
(lp2967
I-1
aI-1
aI-1
aI-1
aI-1
asg37
g38
sba(i__main__
TreeNode
p2968
(dp2969
g2
(lp2970
I-1
aI-1
aI-1
aI-1
aI-1
asg37
g38
sba(i__main__
TreeNode
p2971
(dp2972
g2
(lp2973
I-1
aI-1
aI-1
aI-1
aI-1
asg37
g38
sba(i__main__
TreeNode
p2974
(dp2975
g2
(lp2976
I-1
aI-1
aI-1
aI-1
aI-1
asg37
g38
sba(i__main__
TreeNode
p2977
(dp2978
g2
(lp2979
I-1
aI-1
aI-1
aI-1
aI-1
asg37
g38
sbasg37
I195
sba(i__main__
TreeNode
p2980
(dp2981
g2
(lp2982
I-1
aI-1
aI-1
aI-1
aI-1
asg37
g38
sba(i__main__
TreeNode
p2983
(dp2984
g2
(lp2985
I-1
aI-1
aI-1
aI-1
aI-1
asg37
g38
sba(i__main__
TreeNode
p2986
(dp2987
g2
(lp2988
I-1
aI-1
aI-1
aI-1
aI-1
asg37
g38
sba(i__main__
TreeNode
p2989
(dp2990
g2
(lp2991
I-1
aI-1
aI-1
aI-1
aI-1
asg37
g38
sbasg37
I205
sba(i__main__
TreeNode
p2992
(dp2993
g2
(lp2994
I-1
aI-1
aI-1
aI-1
aI-1
asg37
g38
sba(i__main__
TreeNode
p2995
(dp2996
g2
(lp2997
I-1
aI-1
aI-1
aI-1
aI-1
asg37
g38
sba(i__main__
TreeNode
p2998
(dp2999
g2
(lp3000
I-1
aI-1
aI-1
aI-1
aI-1
asg37
g38
sba(i__main__
TreeNode
p3001
(dp3002
g2
(lp3003
(i__main__
TreeNode
p3004
(dp3005
g2
(lp3006
I-1
aI-1
aI-1
aI-1
aI-1
asg37
g38
sba(i__main__
TreeNode
p3007
(dp3008
g2
(lp3009
I-1
aI-1
aI-1
aI-1
aI-1
asg37
g48
sba(i__main__
TreeNode
p3010
(dp3011
g2
(lp3012
I-1
aI-1
aI-1
aI-1
aI-1
asg37
g38
sba(i__main__
TreeNode
p3013
(dp3014
g2
(lp3015
I-1
aI-1
aI-1
aI-1
aI-1
asg37
g38
sba(i__main__
TreeNode
p3016
(dp3017
g2
(lp3018
I-1
aI-1
aI-1
aI-1
aI-1
asg37
g38
sbasg37
I196
sbasg37
I246
sba(i__main__
TreeNode
p3019
(dp3020
g2
(lp3021
I-1
aI-1
aI-1
aI-1
aI-1
asg37
g38
sba(i__main__
TreeNode
p3022
(dp3023
g2
(lp3024
I-1
aI-1
aI-1
aI-1
aI-1
asg37
g38
sba(i__main__
TreeNode
p3025
(dp3026
g2
(lp3027
I-1
aI-1
aI-1
aI-1
aI-1
asg37
g38
sba(i__main__
TreeNode
p3028
(dp3029
g2
(lp3030
I-1
aI-1
aI-1
aI-1
aI-1
asg37
g38
sbasg37
I209
sba(i__main__
TreeNode
p3031
(dp3032
g2
(lp3033
I-1
aI-1
aI-1
aI-1
aI-1
asg37
g38
sba(i__main__
TreeNode
p3034
(dp3035
g2
(lp3036
I-1
aI-1
aI-1
aI-1
aI-1
asg37
g38
sba(i__main__
TreeNode
p3037
(dp3038
g2
(lp3039
I-1
aI-1
aI-1
aI-1
aI-1
asg37
g48
sbasg37
I210
sba(i__main__
TreeNode
p3040
(dp3041
g2
(lp3042
(i__main__
TreeNode
p3043
(dp3044
g2
(lp3045
(i__main__
TreeNode
p3046
(dp3047
g2
(lp3048
I-1
aI-1
aI-1
aI-1
aI-1
asg37
g38
sba(i__main__
TreeNode
p3049
(dp3050
g2
(lp3051
I-1
aI-1
aI-1
aI-1
aI-1
asg37
g38
sba(i__main__
TreeNode
p3052
(dp3053
g2
(lp3054
I-1
aI-1
aI-1
aI-1
aI-1
asg37
g38
sba(i__main__
TreeNode
p3055
(dp3056
g2
(lp3057
I-1
aI-1
aI-1
aI-1
aI-1
asg37
g38
sba(i__main__
TreeNode
p3058
(dp3059
g2
(lp3060
I-1
aI-1
aI-1
aI-1
aI-1
asg37
g38
sbasg37
I197
sba(i__main__
TreeNode
p3061
(dp3062
g2
(lp3063
I-1
aI-1
aI-1
aI-1
aI-1
asg37
g38
sba(i__main__
TreeNode
p3064
(dp3065
g2
(lp3066
I-1
aI-1
aI-1
aI-1
aI-1
asg37
g38
sba(i__main__
TreeNode
p3067
(dp3068
g2
(lp3069
I-1
aI-1
aI-1
aI-1
aI-1
asg37
g38
sba(i__main__
TreeNode
p3070
(dp3071
g2
(lp3072
I-1
aI-1
aI-1
aI-1
aI-1
asg37
g38
sbasg37
I3
sba(i__main__
TreeNode
p3073
(dp3074
g2
(lp3075
(i__main__
TreeNode
p3076
(dp3077
g2
(lp3078
(i__main__
TreeNode
p3079
(dp3080
g2
(lp3081
I-1
aI-1
aI-1
aI-1
aI-1
asg37
g38
sba(i__main__
TreeNode
p3082
(dp3083
g2
(lp3084
I-1
aI-1
aI-1
aI-1
aI-1
asg37
g38
sba(i__main__
TreeNode
p3085
(dp3086
g2
(lp3087
I-1
aI-1
aI-1
aI-1
aI-1
asg37
g38
sba(i__main__
TreeNode
p3088
(dp3089
g2
(lp3090
I-1
aI-1
aI-1
aI-1
aI-1
asg37
g38
sba(i__main__
TreeNode
p3091
(dp3092
g2
(lp3093
I-1
aI-1
aI-1
aI-1
aI-1
asg37
g38
sbasg37
I236
sba(i__main__
TreeNode
p3094
(dp3095
g2
(lp3096
I-1
aI-1
aI-1
aI-1
aI-1
asg37
g38
sba(i__main__
TreeNode
p3097
(dp3098
g2
(lp3099
I-1
aI-1
aI-1
aI-1
aI-1
asg37
g38
sba(i__main__
TreeNode
p3100
(dp3101
g2
(lp3102
I-1
aI-1
aI-1
aI-1
aI-1
asg37
g38
sba(i__main__
TreeNode
p3103
(dp3104
g2
(lp3105
I-1
aI-1
aI-1
aI-1
aI-1
asg37
g38
sbasg37
I10
sba(i__main__
TreeNode
p3106
(dp3107
g2
(lp3108
(i__main__
TreeNode
p3109
(dp3110
g2
(lp3111
(i__main__
TreeNode
p3112
(dp3113
g2
(lp3114
(i__main__
TreeNode
p3115
(dp3116
g2
(lp3117
I-1
aI-1
aI-1
aI-1
aI-1
asg37
g38
sba(i__main__
TreeNode
p3118
(dp3119
g2
(lp3120
I-1
aI-1
aI-1
aI-1
aI-1
asg37
g38
sba(i__main__
TreeNode
p3121
(dp3122
g2
(lp3123
I-1
aI-1
aI-1
aI-1
aI-1
asg37
g38
sba(i__main__
TreeNode
p3124
(dp3125
g2
(lp3126
I-1
aI-1
aI-1
aI-1
aI-1
asg37
g38
sba(i__main__
TreeNode
p3127
(dp3128
g2
(lp3129
I-1
aI-1
aI-1
aI-1
aI-1
asg37
g38
sbasg37
I254
sba(i__main__
TreeNode
p3130
(dp3131
g2
(lp3132
I-1
aI-1
aI-1
aI-1
aI-1
asg37
g38
sba(i__main__
TreeNode
p3133
(dp3134
g2
(lp3135
I-1
aI-1
aI-1
aI-1
aI-1
asg37
g38
sba(i__main__
TreeNode
p3136
(dp3137
g2
(lp3138
I-1
aI-1
aI-1
aI-1
aI-1
asg37
g48
sba(i__main__
TreeNode
p3139
(dp3140
g2
(lp3141
I-1
aI-1
aI-1
aI-1
aI-1
asg37
g38
sbasg37
I245
sba(i__main__
TreeNode
p3142
(dp3143
g2
(lp3144
I-1
aI-1
aI-1
aI-1
aI-1
asg37
g48
sba(i__main__
TreeNode
p3145
(dp3146
g2
(lp3147
(i__main__
TreeNode
p3148
(dp3149
g2
(lp3150
I-1
aI-1
aI-1
aI-1
aI-1
asg37
g48
sba(i__main__
TreeNode
p3151
(dp3152
g2
(lp3153
I-1
aI-1
aI-1
aI-1
aI-1
asg37
g48
sba(i__main__
TreeNode
p3154
(dp3155
g2
(lp3156
I-1
aI-1
aI-1
aI-1
aI-1
asg37
g48
sba(i__main__
TreeNode
p3157
(dp3158
g2
(lp3159
I-1
aI-1
aI-1
aI-1
aI-1
asg37
g48
sba(i__main__
TreeNode
p3160
(dp3161
g2
(lp3162
I-1
aI-1
aI-1
aI-1
aI-1
asg37
g38
sbasg37
I17
sba(i__main__
TreeNode
p3163
(dp3164
g2
(lp3165
I-1
aI-1
aI-1
aI-1
aI-1
asg37
g38
sba(i__main__
TreeNode
p3166
(dp3167
g2
(lp3168
I-1
aI-1
aI-1
aI-1
aI-1
asg37
g38
sbasg37
I14
sbasg37
I165
sba(i__main__
TreeNode
p3169
(dp3170
g2
(lp3171
I-1
aI-1
aI-1
aI-1
aI-1
asg37
g38
sba(i__main__
TreeNode
p3172
(dp3173
g2
(lp3174
I-1
aI-1
aI-1
aI-1
aI-1
asg37
g38
sba(i__main__
TreeNode
p3175
(dp3176
g2
(lp3177
I-1
aI-1
aI-1
aI-1
aI-1
asg37
g38
sba(i__main__
TreeNode
p3178
(dp3179
g2
(lp3180
(i__main__
TreeNode
p3181
(dp3182
g2
(lp3183
I-1
aI-1
aI-1
aI-1
aI-1
asg37
g38
sba(i__main__
TreeNode
p3184
(dp3185
g2
(lp3186
I-1
aI-1
aI-1
aI-1
aI-1
asg37
g38
sba(i__main__
TreeNode
p3187
(dp3188
g2
(lp3189
I-1
aI-1
aI-1
aI-1
aI-1
asg37
g38
sba(i__main__
TreeNode
p3190
(dp3191
g2
(lp3192
I-1
aI-1
aI-1
aI-1
aI-1
asg37
g38
sba(i__main__
TreeNode
p3193
(dp3194
g2
(lp3195
I-1
aI-1
aI-1
aI-1
aI-1
asg37
g38
sbasg37
I208
sbasg37
I248
sba(i__main__
TreeNode
p3196
(dp3197
g2
(lp3198
(i__main__
TreeNode
p3199
(dp3200
g2
(lp3201
I-1
aI-1
aI-1
aI-1
aI-1
asg37
g38
sba(i__main__
TreeNode
p3202
(dp3203
g2
(lp3204
(i__main__
TreeNode
p3205
(dp3206
g2
(lp3207
(i__main__
TreeNode
p3208
(dp3209
g2
(lp3210
I-1
aI-1
aI-1
aI-1
aI-1
asg37
g48
sba(i__main__
TreeNode
p3211
(dp3212
g2
(lp3213
I-1
aI-1
aI-1
aI-1
aI-1
asg37
g38
sba(i__main__
TreeNode
p3214
(dp3215
g2
(lp3216
I-1
aI-1
aI-1
aI-1
aI-1
asg37
g48
sba(i__main__
TreeNode
p3217
(dp3218
g2
(lp3219
I-1
aI-1
aI-1
aI-1
aI-1
asg37
g48
sba(i__main__
TreeNode
p3220
(dp3221
g2
(lp3222
I-1
aI-1
aI-1
aI-1
aI-1
asg37
g48
sbasg37
I24
sba(i__main__
TreeNode
p3223
(dp3224
g2
(lp3225
I-1
aI-1
aI-1
aI-1
aI-1
asg37
g48
sba(i__main__
TreeNode
p3226
(dp3227
g2
(lp3228
I-1
aI-1
aI-1
aI-1
aI-1
asg37
g48
sba(i__main__
TreeNode
p3229
(dp3230
g2
(lp3231
I-1
aI-1
aI-1
aI-1
aI-1
asg37
g38
sba(i__main__
TreeNode
p3232
(dp3233
g2
(lp3234
I-1
aI-1
aI-1
aI-1
aI-1
asg37
g48
sbasg37
I56
sba(i__main__
TreeNode
p3235
(dp3236
g2
(lp3237
(i__main__
TreeNode
p3238
(dp3239
g2
(lp3240
(i__main__
TreeNode
p3241
(dp3242
g2
(lp3243
(i__main__
TreeNode
p3244
(dp3245
g2
(lp3246
(i__main__
TreeNode
p3247
(dp3248
g2
(lp3249
(i__main__
TreeNode
p3250
(dp3251
g2
(lp3252
I-1
aI-1
aI-1
aI-1
aI-1
asg37
g38
sba(i__main__
TreeNode
p3253
(dp3254
g2
(lp3255
I-1
aI-1
aI-1
aI-1
aI-1
asg37
g48
sba(i__main__
TreeNode
p3256
(dp3257
g2
(lp3258
I-1
aI-1
aI-1
aI-1
aI-1
asg37
g38
sba(i__main__
TreeNode
p3259
(dp3260
g2
(lp3261
(i__main__
TreeNode
p3262
(dp3263
g2
(lp3264
I-1
aI-1
aI-1
aI-1
aI-1
asg37
g48
sba(i__main__
TreeNode
p3265
(dp3266
g2
(lp3267
I-1
aI-1
aI-1
aI-1
aI-1
asg37
g38
sba(i__main__
TreeNode
p3268
(dp3269
g2
(lp3270
I-1
aI-1
aI-1
aI-1
aI-1
asg37
g38
sba(i__main__
TreeNode
p3271
(dp3272
g2
(lp3273
I-1
aI-1
aI-1
aI-1
aI-1
asg37
g38
sba(i__main__
TreeNode
p3274
(dp3275
g2
(lp3276
I-1
aI-1
aI-1
aI-1
aI-1
asg37
g38
sbasg37
I39
sba(i__main__
TreeNode
p3277
(dp3278
g2
(lp3279
I-1
aI-1
aI-1
aI-1
aI-1
asg37
g38
sbasg37
I76
sba(i__main__
TreeNode
p3280
(dp3281
g2
(lp3282
(i__main__
TreeNode
p3283
(dp3284
g2
(lp3285
(i__main__
TreeNode
p3286
(dp3287
g2
(lp3288
I-1
aI-1
aI-1
aI-1
aI-1
asg37
g38
sba(i__main__
TreeNode
p3289
(dp3290
g2
(lp3291
I-1
aI-1
aI-1
aI-1
aI-1
asg37
g38
sba(i__main__
TreeNode
p3292
(dp3293
g2
(lp3294
I-1
aI-1
aI-1
aI-1
aI-1
asg37
g48
sba(i__main__
TreeNode
p3295
(dp3296
g2
(lp3297
I-1
aI-1
aI-1
aI-1
aI-1
asg37
g38
sba(i__main__
TreeNode
p3298
(dp3299
g2
(lp3300
I-1
aI-1
aI-1
aI-1
aI-1
asg37
g38
sbasg37
I51
sba(i__main__
TreeNode
p3301
(dp3302
g2
(lp3303
I-1
aI-1
aI-1
aI-1
aI-1
asg37
g38
sba(i__main__
TreeNode
p3304
(dp3305
g2
(lp3306
I-1
aI-1
aI-1
aI-1
aI-1
asg37
g48
sba(i__main__
TreeNode
p3307
(dp3308
g2
(lp3309
(i__main__
TreeNode
p3310
(dp3311
g2
(lp3312
I-1
aI-1
aI-1
aI-1
aI-1
asg37
g38
sba(i__main__
TreeNode
p3313
(dp3314
g2
(lp3315
I-1
aI-1
aI-1
aI-1
aI-1
asg37
g38
sba(i__main__
TreeNode
p3316
(dp3317
g2
(lp3318
I-1
aI-1
aI-1
aI-1
aI-1
asg37
g38
sba(i__main__
TreeNode
p3319
(dp3320
g2
(lp3321
(i__main__
TreeNode
p3322
(dp3323
g2
(lp3324
I-1
aI-1
aI-1
aI-1
aI-1
asg37
g38
sba(i__main__
TreeNode
p3325
(dp3326
g2
(lp3327
I-1
aI-1
aI-1
aI-1
aI-1
asg37
g38
sba(i__main__
TreeNode
p3328
(dp3329
g2
(lp3330
I-1
aI-1
aI-1
aI-1
aI-1
asg37
g38
sba(i__main__
TreeNode
p3331
(dp3332
g2
(lp3333
I-1
aI-1
aI-1
aI-1
aI-1
asg37
g48
sba(i__main__
TreeNode
p3334
(dp3335
g2
(lp3336
I-1
aI-1
aI-1
aI-1
aI-1
asg37
g38
sbasg37
I25
sba(i__main__
TreeNode
p3337
(dp3338
g2
(lp3339
I-1
aI-1
aI-1
aI-1
aI-1
asg37
g48
sbasg37
I65
sba(i__main__
TreeNode
p3340
(dp3341
g2
(lp3342
(i__main__
TreeNode
p3343
(dp3344
g2
(lp3345
(i__main__
TreeNode
p3346
(dp3347
g2
(lp3348
(i__main__
TreeNode
p3349
(dp3350
g2
(lp3351
I-1
aI-1
aI-1
aI-1
aI-1
asg37
g38
sba(i__main__
TreeNode
p3352
(dp3353
g2
(lp3354
I-1
aI-1
aI-1
aI-1
aI-1
asg37
g38
sba(i__main__
TreeNode
p3355
(dp3356
g2
(lp3357
I-1
aI-1
aI-1
aI-1
aI-1
asg37
g48
sba(i__main__
TreeNode
p3358
(dp3359
g2
(lp3360
I-1
aI-1
aI-1
aI-1
aI-1
asg37
g38
sba(i__main__
TreeNode
p3361
(dp3362
g2
(lp3363
I-1
aI-1
aI-1
aI-1
aI-1
asg37
g38
sbasg37
I28
sba(i__main__
TreeNode
p3364
(dp3365
g2
(lp3366
I-1
aI-1
aI-1
aI-1
aI-1
asg37
g48
sba(i__main__
TreeNode
p3367
(dp3368
g2
(lp3369
I-1
aI-1
aI-1
aI-1
aI-1
asg37
g38
sba(i__main__
TreeNode
p3370
(dp3371
g2
(lp3372
I-1
aI-1
aI-1
aI-1
aI-1
asg37
g38
sba(i__main__
TreeNode
p3373
(dp3374
g2
(lp3375
I-1
aI-1
aI-1
aI-1
aI-1
asg37
g38
sbasg37
I77
sba(i__main__
TreeNode
p3376
(dp3377
g2
(lp3378
I-1
aI-1
aI-1
aI-1
aI-1
asg37
g38
sba(i__main__
TreeNode
p3379
(dp3380
g2
(lp3381
I-1
aI-1
aI-1
aI-1
aI-1
asg37
g38
sba(i__main__
TreeNode
p3382
(dp3383
g2
(lp3384
I-1
aI-1
aI-1
aI-1
aI-1
asg37
g38
sba(i__main__
TreeNode
p3385
(dp3386
g2
(lp3387
I-1
aI-1
aI-1
aI-1
aI-1
asg37
g48
sbasg37
I80
sbasg37
I74
sba(i__main__
TreeNode
p3388
(dp3389
g2
(lp3390
I-1
aI-1
aI-1
aI-1
aI-1
asg37
g48
sba(i__main__
TreeNode
p3391
(dp3392
g2
(lp3393
(i__main__
TreeNode
p3394
(dp3395
g2
(lp3396
(i__main__
TreeNode
p3397
(dp3398
g2
(lp3399
I-1
aI-1
aI-1
aI-1
aI-1
asg37
g48
sba(i__main__
TreeNode
p3400
(dp3401
g2
(lp3402
I-1
aI-1
aI-1
aI-1
aI-1
asg37
g38
sba(i__main__
TreeNode
p3403
(dp3404
g2
(lp3405
(i__main__
TreeNode
p3406
(dp3407
g2
(lp3408
I-1
aI-1
aI-1
aI-1
aI-1
asg37
g38
sba(i__main__
TreeNode
p3409
(dp3410
g2
(lp3411
(i__main__
TreeNode
p3412
(dp3413
g2
(lp3414
I-1
aI-1
aI-1
aI-1
aI-1
asg37
g38
sba(i__main__
TreeNode
p3415
(dp3416
g2
(lp3417
I-1
aI-1
aI-1
aI-1
aI-1
asg37
g38
sba(i__main__
TreeNode
p3418
(dp3419
g2
(lp3420
I-1
aI-1
aI-1
aI-1
aI-1
asg37
g38
sba(i__main__
TreeNode
p3421
(dp3422
g2
(lp3423
I-1
aI-1
aI-1
aI-1
aI-1
asg37
g38
sba(i__main__
TreeNode
p3424
(dp3425
g2
(lp3426
I-1
aI-1
aI-1
aI-1
aI-1
asg37
g48
sbasg37
I26
sba(i__main__
TreeNode
p3427
(dp3428
g2
(lp3429
I-1
aI-1
aI-1
aI-1
aI-1
asg37
g48
sba(i__main__
TreeNode
p3430
(dp3431
g2
(lp3432
I-1
aI-1
aI-1
aI-1
aI-1
asg37
g38
sba(i__main__
TreeNode
p3433
(dp3434
g2
(lp3435
I-1
aI-1
aI-1
aI-1
aI-1
asg37
g38
sbasg37
I33
sba(i__main__
TreeNode
p3436
(dp3437
g2
(lp3438
I-1
aI-1
aI-1
aI-1
aI-1
asg37
g38
sba(i__main__
TreeNode
p3439
(dp3440
g2
(lp3441
I-1
aI-1
aI-1
aI-1
aI-1
asg37
g38
sbasg37
I71
sba(i__main__
TreeNode
p3442
(dp3443
g2
(lp3444
(i__main__
TreeNode
p3445
(dp3446
g2
(lp3447
I-1
aI-1
aI-1
aI-1
aI-1
asg37
g38
sba(i__main__
TreeNode
p3448
(dp3449
g2
(lp3450
(i__main__
TreeNode
p3451
(dp3452
g2
(lp3453
I-1
aI-1
aI-1
aI-1
aI-1
asg37
g38
sba(i__main__
TreeNode
p3454
(dp3455
g2
(lp3456
I-1
aI-1
aI-1
aI-1
aI-1
asg37
g48
sba(i__main__
TreeNode
p3457
(dp3458
g2
(lp3459
I-1
aI-1
aI-1
aI-1
aI-1
asg37
g38
sba(i__main__
TreeNode
p3460
(dp3461
g2
(lp3462
I-1
aI-1
aI-1
aI-1
aI-1
asg37
g38
sba(i__main__
TreeNode
p3463
(dp3464
g2
(lp3465
I-1
aI-1
aI-1
aI-1
aI-1
asg37
g38
sbasg37
I35
sba(i__main__
TreeNode
p3466
(dp3467
g2
(lp3468
I-1
aI-1
aI-1
aI-1
aI-1
asg37
g48
sba(i__main__
TreeNode
p3469
(dp3470
g2
(lp3471
I-1
aI-1
aI-1
aI-1
aI-1
asg37
g38
sba(i__main__
TreeNode
p3472
(dp3473
g2
(lp3474
I-1
aI-1
aI-1
aI-1
aI-1
asg37
g38
sbasg37
I47
sba(i__main__
TreeNode
p3475
(dp3476
g2
(lp3477
I-1
aI-1
aI-1
aI-1
aI-1
asg37
g38
sba(i__main__
TreeNode
p3478
(dp3479
g2
(lp3480
I-1
aI-1
aI-1
aI-1
aI-1
asg37
g38
sba(i__main__
TreeNode
p3481
(dp3482
g2
(lp3483
I-1
aI-1
aI-1
aI-1
aI-1
asg37
g48
sbasg37
I78
sba(i__main__
TreeNode
p3484
(dp3485
g2
(lp3486
(i__main__
TreeNode
p3487
(dp3488
g2
(lp3489
I-1
aI-1
aI-1
aI-1
aI-1
asg37
g38
sba(i__main__
TreeNode
p3490
(dp3491
g2
(lp3492
(i__main__
TreeNode
p3493
(dp3494
g2
(lp3495
I-1
aI-1
aI-1
aI-1
aI-1
asg37
g48
sba(i__main__
TreeNode
p3496
(dp3497
g2
(lp3498
I-1
aI-1
aI-1
aI-1
aI-1
asg37
g48
sba(i__main__
TreeNode
p3499
(dp3500
g2
(lp3501
I-1
aI-1
aI-1
aI-1
aI-1
asg37
g48
sba(i__main__
TreeNode
p3502
(dp3503
g2
(lp3504
I-1
aI-1
aI-1
aI-1
aI-1
asg37
g48
sba(i__main__
TreeNode
p3505
(dp3506
g2
(lp3507
(i__main__
TreeNode
p3508
(dp3509
g2
(lp3510
I-1
aI-1
aI-1
aI-1
aI-1
asg37
g38
sba(i__main__
TreeNode
p3511
(dp3512
g2
(lp3513
I-1
aI-1
aI-1
aI-1
aI-1
asg37
g38
sba(i__main__
TreeNode
p3514
(dp3515
g2
(lp3516
I-1
aI-1
aI-1
aI-1
aI-1
asg37
g48
sba(i__main__
TreeNode
p3517
(dp3518
g2
(lp3519
I-1
aI-1
aI-1
aI-1
aI-1
asg37
g38
sba(i__main__
TreeNode
p3520
(dp3521
g2
(lp3522
I-1
aI-1
aI-1
aI-1
aI-1
asg37
g38
sbasg37
I54
sbasg37
I37
sba(i__main__
TreeNode
p3523
(dp3524
g2
(lp3525
I-1
aI-1
aI-1
aI-1
aI-1
asg37
g38
sba(i__main__
TreeNode
p3526
(dp3527
g2
(lp3528
I-1
aI-1
aI-1
aI-1
aI-1
asg37
g38
sba(i__main__
TreeNode
p3529
(dp3530
g2
(lp3531
I-1
aI-1
aI-1
aI-1
aI-1
asg37
g38
sbasg37
I36
sbasg37
I27
sba(i__main__
TreeNode
p3532
(dp3533
g2
(lp3534
I-1
aI-1
aI-1
aI-1
aI-1
asg37
g38
sba(i__main__
TreeNode
p3535
(dp3536
g2
(lp3537
I-1
aI-1
aI-1
aI-1
aI-1
asg37
g38
sba(i__main__
TreeNode
p3538
(dp3539
g2
(lp3540
I-1
aI-1
aI-1
aI-1
aI-1
asg37
g48
sba(i__main__
TreeNode
p3541
(dp3542
g2
(lp3543
I-1
aI-1
aI-1
aI-1
aI-1
asg37
g38
sbasg37
I43
sba(i__main__
TreeNode
p3544
(dp3545
g2
(lp3546
(i__main__
TreeNode
p3547
(dp3548
g2
(lp3549
I-1
aI-1
aI-1
aI-1
aI-1
asg37
g38
sba(i__main__
TreeNode
p3550
(dp3551
g2
(lp3552
I-1
aI-1
aI-1
aI-1
aI-1
asg37
g38
sba(i__main__
TreeNode
p3553
(dp3554
g2
(lp3555
(i__main__
TreeNode
p3556
(dp3557
g2
(lp3558
I-1
aI-1
aI-1
aI-1
aI-1
asg37
g48
sba(i__main__
TreeNode
p3559
(dp3560
g2
(lp3561
I-1
aI-1
aI-1
aI-1
aI-1
asg37
g38
sba(i__main__
TreeNode
p3562
(dp3563
g2
(lp3564
I-1
aI-1
aI-1
aI-1
aI-1
asg37
g38
sba(i__main__
TreeNode
p3565
(dp3566
g2
(lp3567
I-1
aI-1
aI-1
aI-1
aI-1
asg37
g48
sba(i__main__
TreeNode
p3568
(dp3569
g2
(lp3570
I-1
aI-1
aI-1
aI-1
aI-1
asg37
g38
sbasg37
I67
sba(i__main__
TreeNode
p3571
(dp3572
g2
(lp3573
I-1
aI-1
aI-1
aI-1
aI-1
asg37
g38
sba(i__main__
TreeNode
p3574
(dp3575
g2
(lp3576
I-1
aI-1
aI-1
aI-1
aI-1
asg37
g48
sbasg37
I38
sba(i__main__
TreeNode
p3577
(dp3578
g2
(lp3579
(i__main__
TreeNode
p3580
(dp3581
g2
(lp3582
I-1
aI-1
aI-1
aI-1
aI-1
asg37
g48
sba(i__main__
TreeNode
p3583
(dp3584
g2
(lp3585
(i__main__
TreeNode
p3586
(dp3587
g2
(lp3588
I-1
aI-1
aI-1
aI-1
aI-1
asg37
g48
sba(i__main__
TreeNode
p3589
(dp3590
g2
(lp3591
I-1
aI-1
aI-1
aI-1
aI-1
asg37
g48
sba(i__main__
TreeNode
p3592
(dp3593
g2
(lp3594
(i__main__
TreeNode
p3595
(dp3596
g2
(lp3597
I-1
aI-1
aI-1
aI-1
aI-1
asg37
g48
sba(i__main__
TreeNode
p3598
(dp3599
g2
(lp3600
I-1
aI-1
aI-1
aI-1
aI-1
asg37
g48
sba(i__main__
TreeNode
p3601
(dp3602
g2
(lp3603
I-1
aI-1
aI-1
aI-1
aI-1
asg37
g38
sba(i__main__
TreeNode
p3604
(dp3605
g2
(lp3606
I-1
aI-1
aI-1
aI-1
aI-1
asg37
g48
sba(i__main__
TreeNode
p3607
(dp3608
g2
(lp3609
I-1
aI-1
aI-1
aI-1
aI-1
asg37
g48
sbasg37
I66
sba(i__main__
TreeNode
p3610
(dp3611
g2
(lp3612
I-1
aI-1
aI-1
aI-1
aI-1
asg37
g48
sba(i__main__
TreeNode
p3613
(dp3614
g2
(lp3615
I-1
aI-1
aI-1
aI-1
aI-1
asg37
g48
sbasg37
I49
sba(i__main__
TreeNode
p3616
(dp3617
g2
(lp3618
I-1
aI-1
aI-1
aI-1
aI-1
asg37
g38
sba(i__main__
TreeNode
p3619
(dp3620
g2
(lp3621
I-1
aI-1
aI-1
aI-1
aI-1
asg37
g48
sba(i__main__
TreeNode
p3622
(dp3623
g2
(lp3624
I-1
aI-1
aI-1
aI-1
aI-1
asg37
g48
sbasg37
I63
sba(i__main__
TreeNode
p3625
(dp3626
g2
(lp3627
(i__main__
TreeNode
p3628
(dp3629
g2
(lp3630
I-1
aI-1
aI-1
aI-1
aI-1
asg37
g48
sba(i__main__
TreeNode
p3631
(dp3632
g2
(lp3633
I-1
aI-1
aI-1
aI-1
aI-1
asg37
g38
sba(i__main__
TreeNode
p3634
(dp3635
g2
(lp3636
I-1
aI-1
aI-1
aI-1
aI-1
asg37
g38
sba(i__main__
TreeNode
p3637
(dp3638
g2
(lp3639
I-1
aI-1
aI-1
aI-1
aI-1
asg37
g48
sba(i__main__
TreeNode
p3640
(dp3641
g2
(lp3642
I-1
aI-1
aI-1
aI-1
aI-1
asg37
g38
sbasg37
I68
sba(i__main__
TreeNode
p3643
(dp3644
g2
(lp3645
(i__main__
TreeNode
p3646
(dp3647
g2
(lp3648
I-1
aI-1
aI-1
aI-1
aI-1
asg37
g48
sba(i__main__
TreeNode
p3649
(dp3650
g2
(lp3651
I-1
aI-1
aI-1
aI-1
aI-1
asg37
g38
sba(i__main__
TreeNode
p3652
(dp3653
g2
(lp3654
(i__main__
TreeNode
p3655
(dp3656
g2
(lp3657
I-1
aI-1
aI-1
aI-1
aI-1
asg37
g38
sba(i__main__
TreeNode
p3658
(dp3659
g2
(lp3660
I-1
aI-1
aI-1
aI-1
aI-1
asg37
g38
sba(i__main__
TreeNode
p3661
(dp3662
g2
(lp3663
I-1
aI-1
aI-1
aI-1
aI-1
asg37
g48
sba(i__main__
TreeNode
p3664
(dp3665
g2
(lp3666
I-1
aI-1
aI-1
aI-1
aI-1
asg37
g38
sba(i__main__
TreeNode
p3667
(dp3668
g2
(lp3669
I-1
aI-1
aI-1
aI-1
aI-1
asg37
g38
sbasg37
I73
sba(i__main__
TreeNode
p3670
(dp3671
g2
(lp3672
(i__main__
TreeNode
p3673
(dp3674
g2
(lp3675
I-1
aI-1
aI-1
aI-1
aI-1
asg37
g38
sba(i__main__
TreeNode
p3676
(dp3677
g2
(lp3678
I-1
aI-1
aI-1
aI-1
aI-1
asg37
g48
sba(i__main__
TreeNode
p3679
(dp3680
g2
(lp3681
I-1
aI-1
aI-1
aI-1
aI-1
asg37
g48
sba(i__main__
TreeNode
p3682
(dp3683
g2
(lp3684
I-1
aI-1
aI-1
aI-1
aI-1
asg37
g48
sba(i__main__
TreeNode
p3685
(dp3686
g2
(lp3687
I-1
aI-1
aI-1
aI-1
aI-1
asg37
g48
sbasg37
I40
sba(i__main__
TreeNode
p3688
(dp3689
g2
(lp3690
(i__main__
TreeNode
p3691
(dp3692
g2
(lp3693
I-1
aI-1
aI-1
aI-1
aI-1
asg37
g48
sba(i__main__
TreeNode
p3694
(dp3695
g2
(lp3696
I-1
aI-1
aI-1
aI-1
aI-1
asg37
g38
sba(i__main__
TreeNode
p3697
(dp3698
g2
(lp3699
I-1
aI-1
aI-1
aI-1
aI-1
asg37
g38
sba(i__main__
TreeNode
p3700
(dp3701
g2
(lp3702
I-1
aI-1
aI-1
aI-1
aI-1
asg37
g38
sba(i__main__
TreeNode
p3703
(dp3704
g2
(lp3705
(i__main__
TreeNode
p3706
(dp3707
g2
(lp3708
I-1
aI-1
aI-1
aI-1
aI-1
asg37
g38
sba(i__main__
TreeNode
p3709
(dp3710
g2
(lp3711
I-1
aI-1
aI-1
aI-1
aI-1
asg37
g38
sba(i__main__
TreeNode
p3712
(dp3713
g2
(lp3714
I-1
aI-1
aI-1
aI-1
aI-1
asg37
g48
sba(i__main__
TreeNode
p3715
(dp3716
g2
(lp3717
I-1
aI-1
aI-1
aI-1
aI-1
asg37
g38
sba(i__main__
TreeNode
p3718
(dp3719
g2
(lp3720
I-1
aI-1
aI-1
aI-1
aI-1
asg37
g38
sbasg37
I48
sbasg37
I72
sbasg37
I50
sbasg37
I45
sba(i__main__
TreeNode
p3721
(dp3722
g2
(lp3723
(i__main__
TreeNode
p3724
(dp3725
g2
(lp3726
(i__main__
TreeNode
p3727
(dp3728
g2
(lp3729
I-1
aI-1
aI-1
aI-1
aI-1
asg37
g38
sba(i__main__
TreeNode
p3730
(dp3731
g2
(lp3732
I-1
aI-1
aI-1
aI-1
aI-1
asg37
g38
sba(i__main__
TreeNode
p3733
(dp3734
g2
(lp3735
I-1
aI-1
aI-1
aI-1
aI-1
asg37
g48
sba(i__main__
TreeNode
p3736
(dp3737
g2
(lp3738
I-1
aI-1
aI-1
aI-1
aI-1
asg37
g38
sba(i__main__
TreeNode
p3739
(dp3740
g2
(lp3741
I-1
aI-1
aI-1
aI-1
aI-1
asg37
g38
sbasg37
I22
sba(i__main__
TreeNode
p3742
(dp3743
g2
(lp3744
I-1
aI-1
aI-1
aI-1
aI-1
asg37
g38
sba(i__main__
TreeNode
p3745
(dp3746
g2
(lp3747
I-1
aI-1
aI-1
aI-1
aI-1
asg37
g38
sba(i__main__
TreeNode
p3748
(dp3749
g2
(lp3750
I-1
aI-1
aI-1
aI-1
aI-1
asg37
g38
sba(i__main__
TreeNode
p3751
(dp3752
g2
(lp3753
I-1
aI-1
aI-1
aI-1
aI-1
asg37
g48
sbasg37
I42
sba(i__main__
TreeNode
p3754
(dp3755
g2
(lp3756
(i__main__
TreeNode
p3757
(dp3758
g2
(lp3759
I-1
aI-1
aI-1
aI-1
aI-1
asg37
g38
sba(i__main__
TreeNode
p3760
(dp3761
g2
(lp3762
I-1
aI-1
aI-1
aI-1
aI-1
asg37
g48
sba(i__main__
TreeNode
p3763
(dp3764
g2
(lp3765
I-1
aI-1
aI-1
aI-1
aI-1
asg37
g48
sba(i__main__
TreeNode
p3766
(dp3767
g2
(lp3768
I-1
aI-1
aI-1
aI-1
aI-1
asg37
g38
sba(i__main__
TreeNode
p3769
(dp3770
g2
(lp3771
I-1
aI-1
aI-1
aI-1
aI-1
asg37
g38
sbasg37
I69
sba(i__main__
TreeNode
p3772
(dp3773
g2
(lp3774
(i__main__
TreeNode
p3775
(dp3776
g2
(lp3777
(i__main__
TreeNode
p3778
(dp3779
g2
(lp3780
I-1
aI-1
aI-1
aI-1
aI-1
asg37
g48
sba(i__main__
TreeNode
p3781
(dp3782
g2
(lp3783
I-1
aI-1
aI-1
aI-1
aI-1
asg37
g48
sba(i__main__
TreeNode
p3784
(dp3785
g2
(lp3786
(i__main__
TreeNode
p3787
(dp3788
g2
(lp3789
I-1
aI-1
aI-1
aI-1
aI-1
asg37
g38
sba(i__main__
TreeNode
p3790
(dp3791
g2
(lp3792
I-1
aI-1
aI-1
aI-1
aI-1
asg37
g48
sba(i__main__
TreeNode
p3793
(dp3794
g2
(lp3795
I-1
aI-1
aI-1
aI-1
aI-1
asg37
g38
sba(i__main__
TreeNode
p3796
(dp3797
g2
(lp3798
I-1
aI-1
aI-1
aI-1
aI-1
asg37
g38
sba(i__main__
TreeNode
p3799
(dp3800
g2
(lp3801
I-1
aI-1
aI-1
aI-1
aI-1
asg37
g38
sbasg37
I34
sba(i__main__
TreeNode
p3802
(dp3803
g2
(lp3804
I-1
aI-1
aI-1
aI-1
aI-1
asg37
g48
sba(i__main__
TreeNode
p3805
(dp3806
g2
(lp3807
I-1
aI-1
aI-1
aI-1
aI-1
asg37
g48
sbasg37
I64
sba(i__main__
TreeNode
p3808
(dp3809
g2
(lp3810
(i__main__
TreeNode
p3811
(dp3812
g2
(lp3813
I-1
aI-1
aI-1
aI-1
aI-1
asg37
g48
sba(i__main__
TreeNode
p3814
(dp3815
g2
(lp3816
(i__main__
TreeNode
p3817
(dp3818
g2
(lp3819
I-1
aI-1
aI-1
aI-1
aI-1
asg37
g38
sba(i__main__
TreeNode
p3820
(dp3821
g2
(lp3822
I-1
aI-1
aI-1
aI-1
aI-1
asg37
g38
sba(i__main__
TreeNode
p3823
(dp3824
g2
(lp3825
(i__main__
TreeNode
p3826
(dp3827
g2
(lp3828
I-1
aI-1
aI-1
aI-1
aI-1
asg37
g38
sba(i__main__
TreeNode
p3829
(dp3830
g2
(lp3831
I-1
aI-1
aI-1
aI-1
aI-1
asg37
g48
sba(i__main__
TreeNode
p3832
(dp3833
g2
(lp3834
I-1
aI-1
aI-1
aI-1
aI-1
asg37
g48
sba(i__main__
TreeNode
p3835
(dp3836
g2
(lp3837
I-1
aI-1
aI-1
aI-1
aI-1
asg37
g48
sba(i__main__
TreeNode
p3838
(dp3839
g2
(lp3840
I-1
aI-1
aI-1
aI-1
aI-1
asg37
g48
sbasg37
I70
sba(i__main__
TreeNode
p3841
(dp3842
g2
(lp3843
I-1
aI-1
aI-1
aI-1
aI-1
asg37
g38
sba(i__main__
TreeNode
p3844
(dp3845
g2
(lp3846
I-1
aI-1
aI-1
aI-1
aI-1
asg37
g38
sbasg37
I57
sba(i__main__
TreeNode
p3847
(dp3848
g2
(lp3849
I-1
aI-1
aI-1
aI-1
aI-1
asg37
g48
sba(i__main__
TreeNode
p3850
(dp3851
g2
(lp3852
I-1
aI-1
aI-1
aI-1
aI-1
asg37
g48
sba(i__main__
TreeNode
p3853
(dp3854
g2
(lp3855
I-1
aI-1
aI-1
aI-1
aI-1
asg37
g48
sbasg37
I60
sba(i__main__
TreeNode
p3856
(dp3857
g2
(lp3858
I-1
aI-1
aI-1
aI-1
aI-1
asg37
g48
sba(i__main__
TreeNode
p3859
(dp3860
g2
(lp3861
I-1
aI-1
aI-1
aI-1
aI-1
asg37
g48
sba(i__main__
TreeNode
p3862
(dp3863
g2
(lp3864
I-1
aI-1
aI-1
aI-1
aI-1
asg37
g48
sbasg37
I79
sba(i__main__
TreeNode
p3865
(dp3866
g2
(lp3867
(i__main__
TreeNode
p3868
(dp3869
g2
(lp3870
I-1
aI-1
aI-1
aI-1
aI-1
asg37
g48
sba(i__main__
TreeNode
p3871
(dp3872
g2
(lp3873
(i__main__
TreeNode
p3874
(dp3875
g2
(lp3876
I-1
aI-1
aI-1
aI-1
aI-1
asg37
g48
sba(i__main__
TreeNode
p3877
(dp3878
g2
(lp3879
(i__main__
TreeNode
p3880
(dp3881
g2
(lp3882
I-1
aI-1
aI-1
aI-1
aI-1
asg37
g48
sba(i__main__
TreeNode
p3883
(dp3884
g2
(lp3885
(i__main__
TreeNode
p3886
(dp3887
g2
(lp3888
I-1
aI-1
aI-1
aI-1
aI-1
asg37
g48
sba(i__main__
TreeNode
p3889
(dp3890
g2
(lp3891
(i__main__
TreeNode
p3892
(dp3893
g2
(lp3894
I-1
aI-1
aI-1
aI-1
aI-1
asg37
g48
sba(i__main__
TreeNode
p3895
(dp3896
g2
(lp3897
I-1
aI-1
aI-1
aI-1
aI-1
asg37
g48
sba(i__main__
TreeNode
p3898
(dp3899
g2
(lp3900
I-1
aI-1
aI-1
aI-1
aI-1
asg37
g48
sba(i__main__
TreeNode
p3901
(dp3902
g2
(lp3903
I-1
aI-1
aI-1
aI-1
aI-1
asg37
g48
sba(i__main__
TreeNode
p3904
(dp3905
g2
(lp3906
I-1
aI-1
aI-1
aI-1
aI-1
asg37
g48
sbasg37
I21
sba(i__main__
TreeNode
p3907
(dp3908
g2
(lp3909
I-1
aI-1
aI-1
aI-1
aI-1
asg37
g48
sba(i__main__
TreeNode
p3910
(dp3911
g2
(lp3912
I-1
aI-1
aI-1
aI-1
aI-1
asg37
g48
sba(i__main__
TreeNode
p3913
(dp3914
g2
(lp3915
I-1
aI-1
aI-1
aI-1
aI-1
asg37
g48
sbasg37
I23
sba(i__main__
TreeNode
p3916
(dp3917
g2
(lp3918
(i__main__
TreeNode
p3919
(dp3920
g2
(lp3921
I-1
aI-1
aI-1
aI-1
aI-1
asg37
g38
sba(i__main__
TreeNode
p3922
(dp3923
g2
(lp3924
(i__main__
TreeNode
p3925
(dp3926
g2
(lp3927
I-1
aI-1
aI-1
aI-1
aI-1
asg37
g38
sba(i__main__
TreeNode
p3928
(dp3929
g2
(lp3930
I-1
aI-1
aI-1
aI-1
aI-1
asg37
g38
sba(i__main__
TreeNode
p3931
(dp3932
g2
(lp3933
I-1
aI-1
aI-1
aI-1
aI-1
asg37
g48
sba(i__main__
TreeNode
p3934
(dp3935
g2
(lp3936
I-1
aI-1
aI-1
aI-1
aI-1
asg37
g38
sba(i__main__
TreeNode
p3937
(dp3938
g2
(lp3939
I-1
aI-1
aI-1
aI-1
aI-1
asg37
g38
sbasg37
I62
sba(i__main__
TreeNode
p3940
(dp3941
g2
(lp3942
I-1
aI-1
aI-1
aI-1
aI-1
asg37
g48
sba(i__main__
TreeNode
p3943
(dp3944
g2
(lp3945
I-1
aI-1
aI-1
aI-1
aI-1
asg37
g38
sba(i__main__
TreeNode
p3946
(dp3947
g2
(lp3948
I-1
aI-1
aI-1
aI-1
aI-1
asg37
g38
sbasg37
I58
sba(i__main__
TreeNode
p3949
(dp3950
g2
(lp3951
I-1
aI-1
aI-1
aI-1
aI-1
asg37
g48
sba(i__main__
TreeNode
p3952
(dp3953
g2
(lp3954
I-1
aI-1
aI-1
aI-1
aI-1
asg37
g48
sbasg37
I59
sba(i__main__
TreeNode
p3955
(dp3956
g2
(lp3957
I-1
aI-1
aI-1
aI-1
aI-1
asg37
g38
sba(i__main__
TreeNode
p3958
(dp3959
g2
(lp3960
I-1
aI-1
aI-1
aI-1
aI-1
asg37
g48
sba(i__main__
TreeNode
p3961
(dp3962
g2
(lp3963
I-1
aI-1
aI-1
aI-1
aI-1
asg37
g48
sbasg37
I29
sba(i__main__
TreeNode
p3964
(dp3965
g2
(lp3966
I-1
aI-1
aI-1
aI-1
aI-1
asg37
g38
sba(i__main__
TreeNode
p3967
(dp3968
g2
(lp3969
I-1
aI-1
aI-1
aI-1
aI-1
asg37
g48
sba(i__main__
TreeNode
p3970
(dp3971
g2
(lp3972
I-1
aI-1
aI-1
aI-1
aI-1
asg37
g48
sbasg37
I46
sbasg37
I41
sba(i__main__
TreeNode
p3973
(dp3974
g2
(lp3975
I-1
aI-1
aI-1
aI-1
aI-1
asg37
g38
sba(i__main__
TreeNode
p3976
(dp3977
g2
(lp3978
I-1
aI-1
aI-1
aI-1
aI-1
asg37
g38
sbasg37
I61
sba(i__main__
TreeNode
p3979
(dp3980
g2
(lp3981
(i__main__
TreeNode
p3982
(dp3983
g2
(lp3984
I-1
aI-1
aI-1
aI-1
aI-1
asg37
g38
sba(i__main__
TreeNode
p3985
(dp3986
g2
(lp3987
(i__main__
TreeNode
p3988
(dp3989
g2
(lp3990
I-1
aI-1
aI-1
aI-1
aI-1
asg37
g38
sba(i__main__
TreeNode
p3991
(dp3992
g2
(lp3993
(i__main__
TreeNode
p3994
(dp3995
g2
(lp3996
I-1
aI-1
aI-1
aI-1
aI-1
asg37
g38
sba(i__main__
TreeNode
p3997
(dp3998
g2
(lp3999
(i__main__
TreeNode
p4000
(dp4001
g2
(lp4002
I-1
aI-1
aI-1
aI-1
aI-1
asg37
g38
sba(i__main__
TreeNode
p4003
(dp4004
g2
(lp4005
I-1
aI-1
aI-1
aI-1
aI-1
asg37
g38
sba(i__main__
TreeNode
p4006
(dp4007
g2
(lp4008
I-1
aI-1
aI-1
aI-1
aI-1
asg37
g38
sba(i__main__
TreeNode
p4009
(dp4010
g2
(lp4011
I-1
aI-1
aI-1
aI-1
aI-1
asg37
g38
sba(i__main__
TreeNode
p4012
(dp4013
g2
(lp4014
I-1
aI-1
aI-1
aI-1
aI-1
asg37
g38
sbasg37
I30
sba(i__main__
TreeNode
p4015
(dp4016
g2
(lp4017
I-1
aI-1
aI-1
aI-1
aI-1
asg37
g38
sba(i__main__
TreeNode
p4018
(dp4019
g2
(lp4020
I-1
aI-1
aI-1
aI-1
aI-1
asg37
g38
sba(i__main__
TreeNode
p4021
(dp4022
g2
(lp4023
I-1
aI-1
aI-1
aI-1
aI-1
asg37
g38
sbasg37
I75
sba(i__main__
TreeNode
p4024
(dp4025
g2
(lp4026
(i__main__
TreeNode
p4027
(dp4028
g2
(lp4029
I-1
aI-1
aI-1
aI-1
aI-1
asg37
g38
sba(i__main__
TreeNode
p4030
(dp4031
g2
(lp4032
I-1
aI-1
aI-1
aI-1
aI-1
asg37
g38
sba(i__main__
TreeNode
p4033
(dp4034
g2
(lp4035
I-1
aI-1
aI-1
aI-1
aI-1
asg37
g38
sba(i__main__
TreeNode
p4036
(dp4037
g2
(lp4038
I-1
aI-1
aI-1
aI-1
aI-1
asg37
g38
sba(i__main__
TreeNode
p4039
(dp4040
g2
(lp4041
I-1
aI-1
aI-1
aI-1
aI-1
asg37
g38
sbasg37
I55
sba(i__main__
TreeNode
p4042
(dp4043
g2
(lp4044
I-1
aI-1
aI-1
aI-1
aI-1
asg37
g38
sba(i__main__
TreeNode
p4045
(dp4046
g2
(lp4047
I-1
aI-1
aI-1
aI-1
aI-1
asg37
g38
sbasg37
I31
sba(i__main__
TreeNode
p4048
(dp4049
g2
(lp4050
I-1
aI-1
aI-1
aI-1
aI-1
asg37
g38
sba(i__main__
TreeNode
p4051
(dp4052
g2
(lp4053
I-1
aI-1
aI-1
aI-1
aI-1
asg37
g38
sba(i__main__
TreeNode
p4054
(dp4055
g2
(lp4056
I-1
aI-1
aI-1
aI-1
aI-1
asg37
g38
sbasg37
I44
sba(i__main__
TreeNode
p4057
(dp4058
g2
(lp4059
I-1
aI-1
aI-1
aI-1
aI-1
asg37
g38
sba(i__main__
TreeNode
p4060
(dp4061
g2
(lp4062
I-1
aI-1
aI-1
aI-1
aI-1
asg37
g38
sbasg37
I32
sba(i__main__
TreeNode
p4063
(dp4064
g2
(lp4065
(i__main__
TreeNode
p4066
(dp4067
g2
(lp4068
I-1
aI-1
aI-1
aI-1
aI-1
asg37
g38
sba(i__main__
TreeNode
p4069
(dp4070
g2
(lp4071
I-1
aI-1
aI-1
aI-1
aI-1
asg37
g48
sba(i__main__
TreeNode
p4072
(dp4073
g2
(lp4074
I-1
aI-1
aI-1
aI-1
aI-1
asg37
g38
sba(i__main__
TreeNode
p4075
(dp4076
g2
(lp4077
I-1
aI-1
aI-1
aI-1
aI-1
asg37
g38
sba(i__main__
TreeNode
p4078
(dp4079
g2
(lp4080
I-1
aI-1
aI-1
aI-1
aI-1
asg37
g38
sbasg37
I52
sba(i__main__
TreeNode
p4081
(dp4082
g2
(lp4083
(i__main__
TreeNode
p4084
(dp4085
g2
(lp4086
I-1
aI-1
aI-1
aI-1
aI-1
asg37
g38
sba(i__main__
TreeNode
p4087
(dp4088
g2
(lp4089
I-1
aI-1
aI-1
aI-1
aI-1
asg37
g48
sba(i__main__
TreeNode
p4090
(dp4091
g2
(lp4092
I-1
aI-1
aI-1
aI-1
aI-1
asg37
g38
sba(i__main__
TreeNode
p4093
(dp4094
g2
(lp4095
I-1
aI-1
aI-1
aI-1
aI-1
asg37
g38
sba(i__main__
TreeNode
p4096
(dp4097
g2
(lp4098
I-1
aI-1
aI-1
aI-1
aI-1
asg37
g38
sbasg37
I53
sba(i__main__
TreeNode
p4099
(dp4100
g2
(lp4101
I-1
aI-1
aI-1
aI-1
aI-1
asg37
g38
sbasg37
I90
sb.